	.text
	.def	 @feat.00;
	.scl	3;
	.type	0;
	.endef
	.globl	@feat.00
.set @feat.00, 0
	.intel_syntax noprefix
	.file	"src.cpp"
	.def	 "??1undo_construct@array@json@boost@@QEAA@XZ";
	.scl	2;
	.type	32;
	.endef
	.section	.text,"xr",one_only,"??1undo_construct@array@json@boost@@QEAA@XZ"
	.globl	"??1undo_construct@array@json@boost@@QEAA@XZ" # -- Begin function ??1undo_construct@array@json@boost@@QEAA@XZ
	.p2align	4, 0x90
"??1undo_construct@array@json@boost@@QEAA@XZ": # @"??1undo_construct@array@json@boost@@QEAA@XZ"
# %bb.0:
	cmp	byte ptr [rcx + 8], 0
	je	.LBB0_2
# %bb.1:
	ret
.LBB0_2:
	mov	rdx, qword ptr [rcx]
	lea	rcx, [rdx + 16]
	jmp	"?destroy@array_impl@detail@json@boost@@QEAAXAEBVstorage_ptr@34@@Z" # TAILCALL
                                        # -- End function
	.def	 "?destroy@array_impl@detail@json@boost@@QEAAXAEBVstorage_ptr@34@@Z";
	.scl	2;
	.type	32;
	.endef
	.section	.text,"xr",one_only,"?destroy@array_impl@detail@json@boost@@QEAAXAEBVstorage_ptr@34@@Z"
	.globl	"?destroy@array_impl@detail@json@boost@@QEAAXAEBVstorage_ptr@34@@Z" # -- Begin function ?destroy@array_impl@detail@json@boost@@QEAAXAEBVstorage_ptr@34@@Z
	.p2align	4, 0x90
"?destroy@array_impl@detail@json@boost@@QEAAXAEBVstorage_ptr@34@@Z": # @"?destroy@array_impl@detail@json@boost@@QEAAXAEBVstorage_ptr@34@@Z"
.Lfunc_begin0:
.seh_proc "?destroy@array_impl@detail@json@boost@@QEAAXAEBVstorage_ptr@34@@Z"
	.seh_handler __CxxFrameHandler3, @unwind, @except
# %bb.0:
	push	rbp
	.seh_pushreg rbp
	push	rsi
	.seh_pushreg rsi
	push	rdi
	.seh_pushreg rdi
	push	rbx
	.seh_pushreg rbx
	sub	rsp, 40
	.seh_stackalloc 40
	lea	rbp, [rsp + 32]
	.seh_setframe rbp, 32
	.seh_endprologue
	mov	qword ptr [rbp], -2
	mov	rax, qword ptr [rcx]
	test	rax, rax
	je	.LBB1_15
# %bb.1:
	mov	rbx, rdx
	mov	rsi, rcx
	mov	rdi, qword ptr [rdx]
	mov	ecx, edi
	and	ecx, 3
	cmp	ecx, 2
	je	.LBB1_15
# %bb.2:
	mov	ecx, dword ptr [rax]
	test	rcx, rcx
	je	.LBB1_6
# %bb.3:
	lea	rcx, [rcx + 2*rcx]
	lea	rdi, [rax + 8*rcx]
	add	rdi, 8
	.p2align	4, 0x90
.LBB1_4:                                # =>This Inner Loop Header: Depth=1
	add	rdi, -24
	mov	rcx, rdi
	call	"??1value@json@boost@@QEAA@XZ"
	mov	rax, qword ptr [rsi]
	lea	rcx, [rax + 8]
	test	rax, rax
	cmove	rcx, rax
	cmp	rdi, rcx
	jne	.LBB1_4
# %bb.5:
	mov	rdi, qword ptr [rbx]
.LBB1_6:
	test	rdi, rdi
	je	.LBB1_8
# %bb.7:
	and	rdi, -4
	jmp	.LBB1_11
.LBB1_8:
	mov	eax, dword ptr [rip + "?$TSS0@?1??get_default@storage_ptr@json@boost@@CAPEAVmemory_resource@pmr@container@3@XZ@4HA"]
	mov	ecx, dword ptr [rip + _tls_index]
	mov	rdx, qword ptr gs:[88]
	mov	rcx, qword ptr [rdx + 8*rcx]
	lea	rdi, [rip + "?impl@?1??get_default@storage_ptr@json@boost@@CAPEAVmemory_resource@pmr@container@4@XZ@4Vdefault_resource@detail@34@A"]
	cmp	eax, dword ptr [rcx + _Init_thread_epoch@SECREL32]
	jg	.LBB1_9
.LBB1_11:
	mov	rdx, qword ptr [rsi]
	test	rdx, rdx
	je	.LBB1_12
# %bb.13:
	mov	eax, dword ptr [rdx + 4]
	lea	rax, [rax + 2*rax]
	lea	rax, [8*rax + 17]
	movabs	r8, 274877906936
	and	r8, rax
	jmp	.LBB1_14
.LBB1_12:
	mov	r8d, 16
.LBB1_14:
	mov	rax, qword ptr [rdi]
.Ltmp0:
	mov	r9d, 8
	mov	rcx, rdi
	call	qword ptr [rax + 16]
.Ltmp1:
.LBB1_15:
	nop
	add	rsp, 40
	pop	rbx
	pop	rdi
	pop	rsi
	pop	rbp
	ret
.LBB1_9:
	lea	rcx, [rip + "?$TSS0@?1??get_default@storage_ptr@json@boost@@CAPEAVmemory_resource@pmr@container@3@XZ@4HA"]
	call	_Init_thread_header
	cmp	dword ptr [rip + "?$TSS0@?1??get_default@storage_ptr@json@boost@@CAPEAVmemory_resource@pmr@container@3@XZ@4HA"], -1
	jne	.LBB1_11
# %bb.10:
	lea	rcx, [rip + "??__Fimpl@?1??get_default@storage_ptr@json@boost@@CAPEAVmemory_resource@pmr@container@4@XZ@YAXXZ"]
	call	atexit
	lea	rcx, [rip + "?$TSS0@?1??get_default@storage_ptr@json@boost@@CAPEAVmemory_resource@pmr@container@3@XZ@4HA"]
	call	_Init_thread_footer
	jmp	.LBB1_11
	.seh_handlerdata
	.long	("$cppxdata$?destroy@array_impl@detail@json@boost@@QEAAXAEBVstorage_ptr@34@@Z")@IMGREL
	.section	.text,"xr",one_only,"?destroy@array_impl@detail@json@boost@@QEAAXAEBVstorage_ptr@34@@Z"
	.seh_endproc
	.def	 "?dtor$16@?0??destroy@array_impl@detail@json@boost@@QEAAXAEBVstorage_ptr@34@@Z@4HA";
	.scl	3;
	.type	32;
	.endef
	.p2align	4, 0x90
"?dtor$16@?0??destroy@array_impl@detail@json@boost@@QEAAXAEBVstorage_ptr@34@@Z@4HA":
.seh_proc "?dtor$16@?0??destroy@array_impl@detail@json@boost@@QEAAXAEBVstorage_ptr@34@@Z@4HA"
.LBB1_16:
	mov	qword ptr [rsp + 16], rdx
	push	rbp
	.seh_pushreg rbp
	push	rsi
	.seh_pushreg rsi
	push	rdi
	.seh_pushreg rdi
	push	rbx
	.seh_pushreg rbx
	sub	rsp, 40
	.seh_stackalloc 40
	lea	rbp, [rdx + 32]
	.seh_endprologue
	call	__std_terminate
	int3
.Lfunc_end0:
	.seh_handlerdata
	.section	.text,"xr",one_only,"?destroy@array_impl@detail@json@boost@@QEAAXAEBVstorage_ptr@34@@Z"
	.seh_endproc
	.section	.xdata,"dr",associative,"?destroy@array_impl@detail@json@boost@@QEAAXAEBVstorage_ptr@34@@Z"
	.p2align	2
"$cppxdata$?destroy@array_impl@detail@json@boost@@QEAAXAEBVstorage_ptr@34@@Z":
	.long	429065506               # MagicNumber
	.long	1                       # MaxState
	.long	("$stateUnwindMap$?destroy@array_impl@detail@json@boost@@QEAAXAEBVstorage_ptr@34@@Z")@IMGREL # UnwindMap
	.long	0                       # NumTryBlocks
	.long	0                       # TryBlockMap
	.long	3                       # IPMapEntries
	.long	("$ip2state$?destroy@array_impl@detail@json@boost@@QEAAXAEBVstorage_ptr@34@@Z")@IMGREL # IPToStateXData
	.long	32                      # UnwindHelp
	.long	0                       # ESTypeList
	.long	1                       # EHFlags
"$stateUnwindMap$?destroy@array_impl@detail@json@boost@@QEAAXAEBVstorage_ptr@34@@Z":
	.long	-1                      # ToState
	.long	"?dtor$16@?0??destroy@array_impl@detail@json@boost@@QEAAXAEBVstorage_ptr@34@@Z@4HA"@IMGREL # Action
"$ip2state$?destroy@array_impl@detail@json@boost@@QEAAXAEBVstorage_ptr@34@@Z":
	.long	.Lfunc_begin0@IMGREL    # IP
	.long	-1                      # ToState
	.long	.Ltmp0@IMGREL+1         # IP
	.long	0                       # ToState
	.long	.Ltmp1@IMGREL+1         # IP
	.long	-1                      # ToState
	.section	.text,"xr",one_only,"?destroy@array_impl@detail@json@boost@@QEAAXAEBVstorage_ptr@34@@Z"
                                        # -- End function
	.def	 "??0undo_insert@array@json@boost@@QEAA@PEBVvalue@23@_KAEAV123@@Z";
	.scl	2;
	.type	32;
	.endef
	.section	.text,"xr",one_only,"??0undo_insert@array@json@boost@@QEAA@PEBVvalue@23@_KAEAV123@@Z"
	.globl	"??0undo_insert@array@json@boost@@QEAA@PEBVvalue@23@_KAEAV123@@Z" # -- Begin function ??0undo_insert@array@json@boost@@QEAA@PEBVvalue@23@_KAEAV123@@Z
	.p2align	4, 0x90
"??0undo_insert@array@json@boost@@QEAA@PEBVvalue@23@_KAEAV123@@Z": # @"??0undo_insert@array@json@boost@@QEAA@PEBVvalue@23@_KAEAV123@@Z"
.seh_proc "??0undo_insert@array@json@boost@@QEAA@PEBVvalue@23@_KAEAV123@@Z"
# %bb.0:
	push	rsi
	.seh_pushreg rsi
	sub	rsp, 32
	.seh_stackalloc 32
	.seh_endprologue
	mov	rsi, rcx
	mov	qword ptr [rcx], r9
	mov	qword ptr [rcx + 8], r8
	mov	rax, qword ptr [r9 + 16]
	lea	rcx, [rax + 8]
	test	rax, rax
	cmove	rcx, rax
	sub	rdx, rcx
	sar	rdx, 3
	movabs	r10, -6148914691236517205
	imul	r10, rdx
	mov	qword ptr [rsi + 24], r10
	mov	byte ptr [rsi + 32], 0
	cmp	r8, 2147483647
	jae	.LBB2_14
# %bb.1:
	mov	rcx, qword ptr [r9 + 16]
	test	rcx, rcx
	je	.LBB2_2
# %bb.3:
	mov	edx, dword ptr [rcx]
	mov	eax, dword ptr [rcx + 4]
	add	r8, rdx
	cmp	rax, r8
	jae	.LBB2_6
.LBB2_5:
	mov	rcx, r9
	mov	rdx, r8
	call	"?reserve_impl@array@json@boost@@AEAAX_K@Z"
	mov	r9, qword ptr [rsi]
	mov	r10, qword ptr [rsi + 24]
	mov	rcx, qword ptr [r9 + 16]
.LBB2_6:
	lea	rax, [rcx + 8]
	test	rcx, rcx
	cmove	rax, rcx
	lea	rcx, [r10 + 2*r10]
	lea	rdx, [rax + 8*rcx]
	mov	qword ptr [rsi + 16], rdx
	mov	rcx, qword ptr [r9 + 16]
	test	rcx, rcx
	je	.LBB2_7
# %bb.8:
	mov	eax, dword ptr [rcx]
	sub	rax, r10
	je	.LBB2_11
.LBB2_10:
	mov	rcx, qword ptr [rsi + 8]
	lea	rcx, [rcx + 2*rcx]
	lea	rcx, [rdx + 8*rcx]
	shl	rax, 3
	lea	r8, [rax + 2*rax]
	call	memmove
	mov	rax, qword ptr [rsi]
	mov	rcx, qword ptr [rax + 16]
.LBB2_11:
	test	rcx, rcx
	je	.LBB2_13
# %bb.12:
	mov	eax, dword ptr [rsi + 8]
	add	dword ptr [rcx], eax
.LBB2_13:
	mov	rax, rsi
	add	rsp, 32
	pop	rsi
	ret
.LBB2_2:
	xor	eax, eax
	cmp	rax, r8
	jb	.LBB2_5
	jmp	.LBB2_6
.LBB2_7:
	xor	eax, eax
	sub	rax, r10
	jne	.LBB2_10
	jmp	.LBB2_11
.LBB2_14:
	call	"?raise@array_too_large@json@boost@@SAXXZ"
	int3
	.seh_handlerdata
	.section	.text,"xr",one_only,"??0undo_insert@array@json@boost@@QEAA@PEBVvalue@23@_KAEAV123@@Z"
	.seh_endproc
                                        # -- End function
	.def	 "?raise@array_too_large@json@boost@@SAXXZ";
	.scl	2;
	.type	32;
	.endef
	.section	.text,"xr",one_only,"?raise@array_too_large@json@boost@@SAXXZ"
	.globl	"?raise@array_too_large@json@boost@@SAXXZ" # -- Begin function ?raise@array_too_large@json@boost@@SAXXZ
	.p2align	4, 0x90
"?raise@array_too_large@json@boost@@SAXXZ": # @"?raise@array_too_large@json@boost@@SAXXZ"
.Lfunc_begin1:
.seh_proc "?raise@array_too_large@json@boost@@SAXXZ"
	.seh_handler __CxxFrameHandler3, @unwind, @except
# %bb.0:
	push	rbp
	.seh_pushreg rbp
	sub	rsp, 112
	.seh_stackalloc 112
	lea	rbp, [rsp + 112]
	.seh_setframe rbp, 112
	.seh_endprologue
	mov	qword ptr [rbp - 8], -2
	lea	rax, [rip + "??_C@_0CB@DLOHHGHO@?4?4?2?4?4?2boost?1json?1impl?1except?4ipp@"]
	mov	qword ptr [rbp - 72], rax
	lea	rax, [rip + "??_C@_0DC@LMNCGPKG@static?5void?5boost?3?3json?3?3array_t@"]
	mov	qword ptr [rbp - 64], rax
	mov	qword ptr [rbp - 56], 79
	lea	rax, [rip + "??_7exception@std@@6B@"]
	mov	qword ptr [rbp - 32], rax
	lea	rdx, [rbp - 24]
	xorps	xmm0, xmm0
	movups	xmmword ptr [rbp - 24], xmm0
	lea	rax, [rip + "??_C@_0BA@DIOCNIJA@array?5too?5large?$AA@"]
	mov	qword ptr [rbp - 48], rax
	mov	byte ptr [rbp - 40], 1
.Ltmp2:
	lea	rcx, [rbp - 48]
	call	__std_exception_copy
.Ltmp3:
# %bb.1:
	lea	rax, [rip + "??_7array_too_large@json@boost@@6B@"]
	mov	qword ptr [rbp - 32], rax
.Ltmp4:
	lea	rcx, [rbp - 32]
	lea	rdx, [rbp - 72]
	call	"??$throw_exception@Uarray_too_large@json@boost@@@boost@@YAXAEBUarray_too_large@json@0@AEBUsource_location@0@@Z"
	sub	rsp, 32
.Ltmp5:
# %bb.2:
	.seh_handlerdata
	.long	("$cppxdata$?raise@array_too_large@json@boost@@SAXXZ")@IMGREL
	.section	.text,"xr",one_only,"?raise@array_too_large@json@boost@@SAXXZ"
	.seh_endproc
	.def	 "?dtor$3@?0??raise@array_too_large@json@boost@@SAXXZ@4HA";
	.scl	3;
	.type	32;
	.endef
	.p2align	4, 0x90
"?dtor$3@?0??raise@array_too_large@json@boost@@SAXXZ@4HA":
.seh_proc "?dtor$3@?0??raise@array_too_large@json@boost@@SAXXZ@4HA"
.LBB3_3:
	mov	qword ptr [rsp + 16], rdx
	push	rbp
	.seh_pushreg rbp
	sub	rsp, 32
	.seh_stackalloc 32
	lea	rbp, [rdx + 112]
	.seh_endprologue
	lea	rax, [rip + "??_7exception@std@@6B@"]
	mov	qword ptr [rbp - 32], rax
	lea	rcx, [rbp - 24]
	call	__std_exception_destroy
	nop
	add	rsp, 32
	pop	rbp
	ret                             # CLEANUPRET
	.seh_handlerdata
	.section	.text,"xr",one_only,"?raise@array_too_large@json@boost@@SAXXZ"
	.seh_endproc
	.def	 "?dtor$4@?0??raise@array_too_large@json@boost@@SAXXZ@4HA";
	.scl	3;
	.type	32;
	.endef
	.p2align	4, 0x90
"?dtor$4@?0??raise@array_too_large@json@boost@@SAXXZ@4HA":
.seh_proc "?dtor$4@?0??raise@array_too_large@json@boost@@SAXXZ@4HA"
.LBB3_4:
	mov	qword ptr [rsp + 16], rdx
	push	rbp
	.seh_pushreg rbp
	sub	rsp, 32
	.seh_stackalloc 32
	lea	rbp, [rdx + 112]
	.seh_endprologue
	call	__std_terminate
	int3
.Lfunc_end1:
	.seh_handlerdata
	.section	.text,"xr",one_only,"?raise@array_too_large@json@boost@@SAXXZ"
	.seh_endproc
	.section	.xdata,"dr",associative,"?raise@array_too_large@json@boost@@SAXXZ"
	.p2align	2
"$cppxdata$?raise@array_too_large@json@boost@@SAXXZ":
	.long	429065506               # MagicNumber
	.long	2                       # MaxState
	.long	("$stateUnwindMap$?raise@array_too_large@json@boost@@SAXXZ")@IMGREL # UnwindMap
	.long	0                       # NumTryBlocks
	.long	0                       # TryBlockMap
	.long	4                       # IPMapEntries
	.long	("$ip2state$?raise@array_too_large@json@boost@@SAXXZ")@IMGREL # IPToStateXData
	.long	104                     # UnwindHelp
	.long	0                       # ESTypeList
	.long	1                       # EHFlags
"$stateUnwindMap$?raise@array_too_large@json@boost@@SAXXZ":
	.long	-1                      # ToState
	.long	"?dtor$4@?0??raise@array_too_large@json@boost@@SAXXZ@4HA"@IMGREL # Action
	.long	-1                      # ToState
	.long	"?dtor$3@?0??raise@array_too_large@json@boost@@SAXXZ@4HA"@IMGREL # Action
"$ip2state$?raise@array_too_large@json@boost@@SAXXZ":
	.long	.Lfunc_begin1@IMGREL    # IP
	.long	-1                      # ToState
	.long	.Ltmp2@IMGREL+1         # IP
	.long	0                       # ToState
	.long	.Ltmp4@IMGREL+1         # IP
	.long	1                       # ToState
	.long	.Ltmp5@IMGREL+1         # IP
	.long	-1                      # ToState
	.section	.text,"xr",one_only,"?raise@array_too_large@json@boost@@SAXXZ"
                                        # -- End function
	.def	 "?relocate@array@json@boost@@CAXPEAVvalue@23@0_K@Z";
	.scl	2;
	.type	32;
	.endef
	.section	.text,"xr",one_only,"?relocate@array@json@boost@@CAXPEAVvalue@23@0_K@Z"
	.globl	"?relocate@array@json@boost@@CAXPEAVvalue@23@0_K@Z" # -- Begin function ?relocate@array@json@boost@@CAXPEAVvalue@23@0_K@Z
	.p2align	4, 0x90
"?relocate@array@json@boost@@CAXPEAVvalue@23@0_K@Z": # @"?relocate@array@json@boost@@CAXPEAVvalue@23@0_K@Z"
# %bb.0:
	test	r8, r8
	je	.LBB4_1
# %bb.2:
	shl	r8, 3
	lea	r8, [r8 + 2*r8]
	jmp	memmove                 # TAILCALL
.LBB4_1:
	ret
                                        # -- End function
	.def	 "??1undo_insert@array@json@boost@@QEAA@XZ";
	.scl	2;
	.type	32;
	.endef
	.section	.text,"xr",one_only,"??1undo_insert@array@json@boost@@QEAA@XZ"
	.globl	"??1undo_insert@array@json@boost@@QEAA@XZ" # -- Begin function ??1undo_insert@array@json@boost@@QEAA@XZ
	.p2align	4, 0x90
"??1undo_insert@array@json@boost@@QEAA@XZ": # @"??1undo_insert@array@json@boost@@QEAA@XZ"
.seh_proc "??1undo_insert@array@json@boost@@QEAA@XZ"
# %bb.0:
	push	rsi
	.seh_pushreg rsi
	push	rdi
	.seh_pushreg rdi
	push	rbx
	.seh_pushreg rbx
	sub	rsp, 32
	.seh_stackalloc 32
	.seh_endprologue
	cmp	byte ptr [rcx + 32], 0
	je	.LBB5_2
.LBB5_1:
	add	rsp, 32
	pop	rbx
	pop	rdi
	pop	rsi
	ret
.LBB5_2:
	mov	rsi, rcx
	mov	rcx, qword ptr [rcx]
	mov	rax, qword ptr [rcx + 16]
	lea	rdx, [rax + 8]
	test	rax, rax
	cmove	rdx, rax
	mov	rbx, qword ptr [rsi + 24]
	lea	rbx, [rbx + 2*rbx]
	lea	rdi, [rdx + 8*rbx]
	mov	ecx, dword ptr [rcx]
	and	ecx, 3
	cmp	ecx, 2
	je	.LBB5_6
# %bb.3:
	mov	rbx, qword ptr [rsi + 16]
	cmp	rbx, rdi
	je	.LBB5_6
	.p2align	4, 0x90
.LBB5_4:                                # =>This Inner Loop Header: Depth=1
	add	rbx, -24
	mov	rcx, rbx
	call	"??1value@json@boost@@QEAA@XZ"
	cmp	rdi, rbx
	jne	.LBB5_4
# %bb.5:
	mov	rax, qword ptr [rsi]
	mov	rax, qword ptr [rax + 16]
.LBB5_6:
	test	rax, rax
	je	.LBB5_9
# %bb.7:
	mov	ecx, dword ptr [rsi + 8]
	sub	dword ptr [rax], ecx
	lea	rax, [rsi + 8]
	mov	rcx, qword ptr [rsi]
	mov	rcx, qword ptr [rcx + 16]
	test	rcx, rcx
	je	.LBB5_10
# %bb.8:
	mov	ecx, dword ptr [rcx]
	sub	rcx, qword ptr [rsi + 24]
	jne	.LBB5_11
	jmp	.LBB5_1
.LBB5_9:
	lea	rax, [rsi + 8]
.LBB5_10:
	xor	ecx, ecx
	sub	rcx, qword ptr [rsi + 24]
	je	.LBB5_1
.LBB5_11:
	mov	rax, qword ptr [rax]
	lea	rax, [rax + 2*rax]
	lea	rdx, [rdi + 8*rax]
	shl	rcx, 3
	lea	r8, [rcx + 2*rcx]
	mov	rcx, rdi
	add	rsp, 32
	pop	rbx
	pop	rdi
	pop	rsi
	jmp	memmove                 # TAILCALL
	.seh_handlerdata
	.section	.text,"xr",one_only,"??1undo_insert@array@json@boost@@QEAA@XZ"
	.seh_endproc
                                        # -- End function
	.def	 "??0array@json@boost@@AEAA@$$QEAVunchecked_array@detail@12@@Z";
	.scl	2;
	.type	32;
	.endef
	.section	.text,"xr",one_only,"??0array@json@boost@@AEAA@$$QEAVunchecked_array@detail@12@@Z"
	.globl	"??0array@json@boost@@AEAA@$$QEAVunchecked_array@detail@12@@Z" # -- Begin function ??0array@json@boost@@AEAA@$$QEAVunchecked_array@detail@12@@Z
	.p2align	4, 0x90
"??0array@json@boost@@AEAA@$$QEAVunchecked_array@detail@12@@Z": # @"??0array@json@boost@@AEAA@$$QEAVunchecked_array@detail@12@@Z"
.Lfunc_begin2:
.seh_proc "??0array@json@boost@@AEAA@$$QEAVunchecked_array@detail@12@@Z"
	.seh_handler __CxxFrameHandler3, @unwind, @except
# %bb.0:
	push	rbp
	.seh_pushreg rbp
	push	rsi
	.seh_pushreg rsi
	push	rdi
	.seh_pushreg rdi
	push	rbx
	.seh_pushreg rbx
	sub	rsp, 56
	.seh_stackalloc 56
	lea	rbp, [rsp + 48]
	.seh_setframe rbp, 48
	.seh_endprologue
	mov	qword ptr [rbp], -2
	mov	rsi, rdx
	mov	rdi, rcx
	mov	rax, qword ptr [rdx + 16]
	mov	rax, qword ptr [rax]
	mov	qword ptr [rcx], rax
	test	al, 1
	je	.LBB6_2
# %bb.1:
	and	rax, -4
	lock		add	qword ptr [rax + 8], 1
.LBB6_2:
	mov	byte ptr [rdi + 8], 0
	mov	rbx, qword ptr [rsi + 8]
	mov	qword ptr [rdi + 16], 0
	cmp	rbx, 2147483647
	jae	.LBB6_3
# %bb.5:
	test	rbx, rbx
	je	.LBB6_24
# %bb.6:
	mov	qword ptr [rbp - 8], rdi # 8-byte Spill
	mov	rdi, qword ptr [rdi]
	test	rdi, rdi
	je	.LBB6_8
# %bb.7:
	and	rdi, -4
	jmp	.LBB6_11
.LBB6_24:
	mov	qword ptr [rdi + 16], 0
	xor	edx, edx
	jmp	.LBB6_15
.LBB6_8:
	mov	eax, dword ptr [rip + "?$TSS0@?1??get_default@storage_ptr@json@boost@@CAPEAVmemory_resource@pmr@container@3@XZ@4HA"]
	mov	ecx, dword ptr [rip + _tls_index]
	mov	rdx, qword ptr gs:[88]
	mov	rcx, qword ptr [rdx + 8*rcx]
	lea	rdi, [rip + "?impl@?1??get_default@storage_ptr@json@boost@@CAPEAVmemory_resource@pmr@container@4@XZ@4Vdefault_resource@detail@34@A"]
	cmp	eax, dword ptr [rcx + _Init_thread_epoch@SECREL32]
	jg	.LBB6_9
.LBB6_11:
	lea	rax, [rbx + 2*rbx]
	lea	rdx, [8*rax + 17]
	and	rdx, -8
	mov	rax, qword ptr [rdi]
.Ltmp6:
	mov	r8d, 8
	mov	rcx, rdi
	call	qword ptr [rax + 8]
.Ltmp7:
# %bb.12:
	mov	rdi, qword ptr [rbp - 8] # 8-byte Reload
	mov	qword ptr [rdi + 16], rax
	mov	dword ptr [rax + 4], ebx
	mov	rax, qword ptr [rdi + 16]
	mov	dword ptr [rax], 0
	mov	rcx, qword ptr [rdi + 16]
	mov	rax, qword ptr [rsi + 8]
	test	rcx, rcx
	je	.LBB6_13
# %bb.14:
	mov	dword ptr [rcx], eax
	mov	rdx, qword ptr [rdi + 16]
.LBB6_15:
	mov	rax, qword ptr [rsi + 8]
	test	rax, rax
	je	.LBB6_18
.LBB6_17:
	lea	rcx, [rdx + 8]
	test	rdx, rdx
	cmove	rcx, rdx
	mov	rdx, qword ptr [rsi]
	shl	rax, 3
	lea	r8, [rax + 2*rax]
	call	memcpy
.LBB6_18:
	mov	qword ptr [rsi], 0
	mov	rax, rdi
	add	rsp, 56
	pop	rbx
	pop	rdi
	pop	rsi
	pop	rbp
	ret
.LBB6_13:
	xor	edx, edx
	test	rax, rax
	jne	.LBB6_17
	jmp	.LBB6_18
.LBB6_9:
	lea	rcx, [rip + "?$TSS0@?1??get_default@storage_ptr@json@boost@@CAPEAVmemory_resource@pmr@container@3@XZ@4HA"]
	call	_Init_thread_header
	cmp	dword ptr [rip + "?$TSS0@?1??get_default@storage_ptr@json@boost@@CAPEAVmemory_resource@pmr@container@3@XZ@4HA"], -1
	jne	.LBB6_11
# %bb.10:
	lea	rcx, [rip + "??__Fimpl@?1??get_default@storage_ptr@json@boost@@CAPEAVmemory_resource@pmr@container@4@XZ@YAXXZ"]
	call	atexit
	lea	rcx, [rip + "?$TSS0@?1??get_default@storage_ptr@json@boost@@CAPEAVmemory_resource@pmr@container@3@XZ@4HA"]
	call	_Init_thread_footer
	jmp	.LBB6_11
.LBB6_3:
.Ltmp8:
	mov	qword ptr [rbp - 8], rdi # 8-byte Spill
	call	"?raise@array_too_large@json@boost@@SAXXZ"
	sub	rsp, 32
.Ltmp9:
# %bb.4:
	.seh_handlerdata
	.long	("$cppxdata$??0array@json@boost@@AEAA@$$QEAVunchecked_array@detail@12@@Z")@IMGREL
	.section	.text,"xr",one_only,"??0array@json@boost@@AEAA@$$QEAVunchecked_array@detail@12@@Z"
	.seh_endproc
	.def	 "?dtor$19@?0???0array@json@boost@@AEAA@$$QEAVunchecked_array@detail@12@@Z@4HA";
	.scl	3;
	.type	32;
	.endef
	.p2align	4, 0x90
"?dtor$19@?0???0array@json@boost@@AEAA@$$QEAVunchecked_array@detail@12@@Z@4HA":
.seh_proc "?dtor$19@?0???0array@json@boost@@AEAA@$$QEAVunchecked_array@detail@12@@Z@4HA"
.LBB6_19:
	mov	qword ptr [rsp + 16], rdx
	push	rbp
	.seh_pushreg rbp
	push	rsi
	.seh_pushreg rsi
	push	rdi
	.seh_pushreg rdi
	push	rbx
	.seh_pushreg rbx
	sub	rsp, 40
	.seh_stackalloc 40
	lea	rbp, [rdx + 48]
	.seh_endprologue
	mov	rax, qword ptr [rbp - 8] # 8-byte Reload
	mov	rcx, qword ptr [rax]
	test	cl, 1
	je	.LBB6_23
# %bb.20:
	and	rcx, -4
	mov	rax, -1
	lock		xadd	qword ptr [rcx + 8], rax
	test	rcx, rcx
	je	.LBB6_23
# %bb.21:
	cmp	rax, 1
	jne	.LBB6_23
# %bb.22:
	mov	rax, qword ptr [rcx]
	mov	edx, 1
	call	qword ptr [rax]
.LBB6_23:
	nop
	add	rsp, 40
	pop	rbx
	pop	rdi
	pop	rsi
	pop	rbp
	ret                             # CLEANUPRET
.Lfunc_end2:
	.seh_handlerdata
	.section	.text,"xr",one_only,"??0array@json@boost@@AEAA@$$QEAVunchecked_array@detail@12@@Z"
	.seh_endproc
	.section	.xdata,"dr",associative,"??0array@json@boost@@AEAA@$$QEAVunchecked_array@detail@12@@Z"
	.p2align	2
"$cppxdata$??0array@json@boost@@AEAA@$$QEAVunchecked_array@detail@12@@Z":
	.long	429065506               # MagicNumber
	.long	1                       # MaxState
	.long	("$stateUnwindMap$??0array@json@boost@@AEAA@$$QEAVunchecked_array@detail@12@@Z")@IMGREL # UnwindMap
	.long	0                       # NumTryBlocks
	.long	0                       # TryBlockMap
	.long	5                       # IPMapEntries
	.long	("$ip2state$??0array@json@boost@@AEAA@$$QEAVunchecked_array@detail@12@@Z")@IMGREL # IPToStateXData
	.long	48                      # UnwindHelp
	.long	0                       # ESTypeList
	.long	1                       # EHFlags
"$stateUnwindMap$??0array@json@boost@@AEAA@$$QEAVunchecked_array@detail@12@@Z":
	.long	-1                      # ToState
	.long	"?dtor$19@?0???0array@json@boost@@AEAA@$$QEAVunchecked_array@detail@12@@Z@4HA"@IMGREL # Action
"$ip2state$??0array@json@boost@@AEAA@$$QEAVunchecked_array@detail@12@@Z":
	.long	.Lfunc_begin2@IMGREL    # IP
	.long	-1                      # ToState
	.long	.Ltmp6@IMGREL+1         # IP
	.long	0                       # ToState
	.long	.Ltmp7@IMGREL+1         # IP
	.long	-1                      # ToState
	.long	.Ltmp8@IMGREL+1         # IP
	.long	0                       # ToState
	.long	.Ltmp9@IMGREL+1         # IP
	.long	-1                      # ToState
	.section	.text,"xr",one_only,"??0array@json@boost@@AEAA@$$QEAVunchecked_array@detail@12@@Z"
                                        # -- End function
	.def	 "??1storage_ptr@json@boost@@QEAA@XZ";
	.scl	2;
	.type	32;
	.endef
	.section	.text,"xr",discard,"??1storage_ptr@json@boost@@QEAA@XZ"
	.globl	"??1storage_ptr@json@boost@@QEAA@XZ" # -- Begin function ??1storage_ptr@json@boost@@QEAA@XZ
	.p2align	4, 0x90
"??1storage_ptr@json@boost@@QEAA@XZ":   # @"??1storage_ptr@json@boost@@QEAA@XZ"
# %bb.0:
	mov	rcx, qword ptr [rcx]
	test	cl, 1
	je	.LBB7_3
# %bb.1:
	and	rcx, -4
	mov	rax, -1
	lock		xadd	qword ptr [rcx + 8], rax
	test	rcx, rcx
	je	.LBB7_3
# %bb.2:
	cmp	rax, 1
	jne	.LBB7_3
# %bb.4:
	mov	rax, qword ptr [rcx]
	mov	rax, qword ptr [rax]
	mov	edx, 1
	rex64 jmp	rax             # TAILCALL
.LBB7_3:
	ret
                                        # -- End function
	.def	 "??0array@json@boost@@QEAA@Vstorage_ptr@12@@Z";
	.scl	2;
	.type	32;
	.endef
	.section	.text,"xr",one_only,"??0array@json@boost@@QEAA@Vstorage_ptr@12@@Z"
	.globl	"??0array@json@boost@@QEAA@Vstorage_ptr@12@@Z" # -- Begin function ??0array@json@boost@@QEAA@Vstorage_ptr@12@@Z
	.p2align	4, 0x90
"??0array@json@boost@@QEAA@Vstorage_ptr@12@@Z": # @"??0array@json@boost@@QEAA@Vstorage_ptr@12@@Z"
.seh_proc "??0array@json@boost@@QEAA@Vstorage_ptr@12@@Z"
# %bb.0:
	push	rsi
	.seh_pushreg rsi
	sub	rsp, 32
	.seh_stackalloc 32
	.seh_endprologue
	mov	rsi, rcx
	mov	rax, qword ptr [rdx]
	mov	qword ptr [rdx], 0
	mov	qword ptr [rcx], rax
	mov	qword ptr [rcx + 16], 0
	mov	byte ptr [rcx + 8], 0
	mov	rcx, qword ptr [rdx]
	test	cl, 1
	je	.LBB8_4
# %bb.1:
	and	rcx, -4
	mov	rax, -1
	lock		xadd	qword ptr [rcx + 8], rax
	test	rcx, rcx
	je	.LBB8_4
# %bb.2:
	cmp	rax, 1
	jne	.LBB8_4
# %bb.3:
	mov	rax, qword ptr [rcx]
	mov	edx, 1
	call	qword ptr [rax]
.LBB8_4:
	mov	rax, rsi
	add	rsp, 32
	pop	rsi
	ret
	.seh_handlerdata
	.section	.text,"xr",one_only,"??0array@json@boost@@QEAA@Vstorage_ptr@12@@Z"
	.seh_endproc
                                        # -- End function
	.def	 "??0array@json@boost@@QEAA@_KAEBVvalue@12@Vstorage_ptr@12@@Z";
	.scl	2;
	.type	32;
	.endef
	.section	.text,"xr",one_only,"??0array@json@boost@@QEAA@_KAEBVvalue@12@Vstorage_ptr@12@@Z"
	.globl	"??0array@json@boost@@QEAA@_KAEBVvalue@12@Vstorage_ptr@12@@Z" # -- Begin function ??0array@json@boost@@QEAA@_KAEBVvalue@12@Vstorage_ptr@12@@Z
	.p2align	4, 0x90
"??0array@json@boost@@QEAA@_KAEBVvalue@12@Vstorage_ptr@12@@Z": # @"??0array@json@boost@@QEAA@_KAEBVvalue@12@Vstorage_ptr@12@@Z"
.Lfunc_begin3:
.seh_proc "??0array@json@boost@@QEAA@_KAEBVvalue@12@Vstorage_ptr@12@@Z"
	.seh_handler __CxxFrameHandler3, @unwind, @except
# %bb.0:
	push	rbp
	.seh_pushreg rbp
	push	rsi
	.seh_pushreg rsi
	push	rdi
	.seh_pushreg rdi
	push	rbx
	.seh_pushreg rbx
	sub	rsp, 72
	.seh_stackalloc 72
	lea	rbp, [rsp + 64]
	.seh_setframe rbp, 64
	.seh_endprologue
	mov	qword ptr [rbp], -2
	mov	rsi, r8
	mov	rdi, rdx
	mov	rax, qword ptr [r9]
	mov	qword ptr [rbp - 24], r9 # 8-byte Spill
	mov	qword ptr [r9], 0
	mov	qword ptr [rcx], rax
	mov	byte ptr [rcx + 8], 0
	lea	rax, [rcx + 16]
	mov	qword ptr [rbp - 16], rax # 8-byte Spill
	mov	qword ptr [rbp - 8], rcx # 8-byte Spill
	mov	qword ptr [rcx + 16], 0
	test	rdx, rdx
	je	.LBB9_2
# %bb.1:
.Ltmp10:
	mov	rcx, qword ptr [rbp - 8] # 8-byte Reload
	mov	rdx, rdi
	call	"?reserve_impl@array@json@boost@@AEAAX_K@Z"
.Ltmp11:
.LBB9_2:
	lea	rbx, [rbp - 32]
	.p2align	4, 0x90
.LBB9_3:                                # =>This Inner Loop Header: Depth=1
	mov	rax, qword ptr [rbp - 16] # 8-byte Reload
	mov	rax, qword ptr [rax]
	test	rax, rax
	je	.LBB9_4
# %bb.5:                                #   in Loop: Header=BB9_3 Depth=1
	mov	ecx, dword ptr [rax]
	cmp	rcx, rdi
	jb	.LBB9_7
	jmp	.LBB9_15
	.p2align	4, 0x90
.LBB9_4:                                #   in Loop: Header=BB9_3 Depth=1
	xor	ecx, ecx
	cmp	rcx, rdi
	jae	.LBB9_15
.LBB9_7:                                #   in Loop: Header=BB9_3 Depth=1
	lea	rcx, [rax + 8]
	test	rax, rax
	cmove	rcx, rax
	je	.LBB9_8
# %bb.9:                                #   in Loop: Header=BB9_3 Depth=1
	mov	eax, dword ptr [rax]
	jmp	.LBB9_10
	.p2align	4, 0x90
.LBB9_8:                                #   in Loop: Header=BB9_3 Depth=1
	xor	eax, eax
.LBB9_10:                               #   in Loop: Header=BB9_3 Depth=1
	lea	rax, [rax + 2*rax]
	lea	rcx, [rcx + 8*rax]
	mov	rax, qword ptr [rbp - 8] # 8-byte Reload
	mov	rax, qword ptr [rax]
	mov	qword ptr [rbp - 32], rax
	test	al, 1
	je	.LBB9_12
# %bb.11:                               #   in Loop: Header=BB9_3 Depth=1
	and	rax, -4
	lock		add	qword ptr [rax + 8], 1
.LBB9_12:                               #   in Loop: Header=BB9_3 Depth=1
.Ltmp12:
	mov	rdx, rsi
	mov	r8, rbx
	call	"??0value@json@boost@@QEAA@AEBV012@Vstorage_ptr@12@@Z"
.Ltmp13:
# %bb.13:                               #   in Loop: Header=BB9_3 Depth=1
	mov	rax, qword ptr [rbp - 16] # 8-byte Reload
	mov	rax, qword ptr [rax]
	test	rax, rax
	je	.LBB9_3
# %bb.14:                               #   in Loop: Header=BB9_3 Depth=1
	add	dword ptr [rax], 1
	jmp	.LBB9_3
.LBB9_15:
	mov	rax, qword ptr [rbp - 24] # 8-byte Reload
	mov	rcx, qword ptr [rax]
	test	cl, 1
	je	.LBB9_19
# %bb.16:
	and	rcx, -4
	mov	rax, -1
	lock		xadd	qword ptr [rcx + 8], rax
	test	rcx, rcx
	je	.LBB9_19
# %bb.17:
	cmp	rax, 1
	jne	.LBB9_19
# %bb.18:
	mov	rax, qword ptr [rcx]
	mov	edx, 1
	call	qword ptr [rax]
.LBB9_19:
	mov	rax, qword ptr [rbp - 8] # 8-byte Reload
	add	rsp, 72
	pop	rbx
	pop	rdi
	pop	rsi
	pop	rbp
	ret
	.seh_handlerdata
	.long	("$cppxdata$??0array@json@boost@@QEAA@_KAEBVvalue@12@Vstorage_ptr@12@@Z")@IMGREL
	.section	.text,"xr",one_only,"??0array@json@boost@@QEAA@_KAEBVvalue@12@Vstorage_ptr@12@@Z"
	.seh_endproc
	.def	 "?dtor$20@?0???0array@json@boost@@QEAA@_KAEBVvalue@12@Vstorage_ptr@12@@Z@4HA";
	.scl	3;
	.type	32;
	.endef
	.p2align	4, 0x90
"?dtor$20@?0???0array@json@boost@@QEAA@_KAEBVvalue@12@Vstorage_ptr@12@@Z@4HA":
.seh_proc "?dtor$20@?0???0array@json@boost@@QEAA@_KAEBVvalue@12@Vstorage_ptr@12@@Z@4HA"
.LBB9_20:
	mov	qword ptr [rsp + 16], rdx
	push	rbp
	.seh_pushreg rbp
	push	rsi
	.seh_pushreg rsi
	push	rdi
	.seh_pushreg rdi
	push	rbx
	.seh_pushreg rbx
	sub	rsp, 40
	.seh_stackalloc 40
	lea	rbp, [rdx + 64]
	.seh_endprologue
	mov	rcx, qword ptr [rbp - 16] # 8-byte Reload
	mov	rsi, qword ptr [rbp - 8] # 8-byte Reload
	mov	rdx, rsi
	call	"?destroy@array_impl@detail@json@boost@@QEAAXAEBVstorage_ptr@34@@Z"
	mov	rcx, qword ptr [rsi]
	test	cl, 1
	je	.LBB9_24
# %bb.21:
	and	rcx, -4
	mov	rax, -1
	lock		xadd	qword ptr [rcx + 8], rax
	test	rcx, rcx
	je	.LBB9_24
# %bb.22:
	cmp	rax, 1
	jne	.LBB9_24
# %bb.23:
	mov	rax, qword ptr [rcx]
	mov	edx, 1
	call	qword ptr [rax]
.LBB9_24:
	mov	rax, qword ptr [rbp - 24] # 8-byte Reload
	mov	rcx, qword ptr [rax]
	test	cl, 1
	je	.LBB9_28
# %bb.25:
	and	rcx, -4
	mov	rax, -1
	lock		xadd	qword ptr [rcx + 8], rax
	test	rcx, rcx
	je	.LBB9_28
# %bb.26:
	cmp	rax, 1
	jne	.LBB9_28
# %bb.27:
	mov	rax, qword ptr [rcx]
	mov	edx, 1
	call	qword ptr [rax]
.LBB9_28:
	nop
	add	rsp, 40
	pop	rbx
	pop	rdi
	pop	rsi
	pop	rbp
	ret                             # CLEANUPRET
.Lfunc_end3:
	.seh_handlerdata
	.section	.text,"xr",one_only,"??0array@json@boost@@QEAA@_KAEBVvalue@12@Vstorage_ptr@12@@Z"
	.seh_endproc
	.section	.xdata,"dr",associative,"??0array@json@boost@@QEAA@_KAEBVvalue@12@Vstorage_ptr@12@@Z"
	.p2align	2
"$cppxdata$??0array@json@boost@@QEAA@_KAEBVvalue@12@Vstorage_ptr@12@@Z":
	.long	429065506               # MagicNumber
	.long	1                       # MaxState
	.long	("$stateUnwindMap$??0array@json@boost@@QEAA@_KAEBVvalue@12@Vstorage_ptr@12@@Z")@IMGREL # UnwindMap
	.long	0                       # NumTryBlocks
	.long	0                       # TryBlockMap
	.long	3                       # IPMapEntries
	.long	("$ip2state$??0array@json@boost@@QEAA@_KAEBVvalue@12@Vstorage_ptr@12@@Z")@IMGREL # IPToStateXData
	.long	64                      # UnwindHelp
	.long	0                       # ESTypeList
	.long	1                       # EHFlags
"$stateUnwindMap$??0array@json@boost@@QEAA@_KAEBVvalue@12@Vstorage_ptr@12@@Z":
	.long	-1                      # ToState
	.long	"?dtor$20@?0???0array@json@boost@@QEAA@_KAEBVvalue@12@Vstorage_ptr@12@@Z@4HA"@IMGREL # Action
"$ip2state$??0array@json@boost@@QEAA@_KAEBVvalue@12@Vstorage_ptr@12@@Z":
	.long	.Lfunc_begin3@IMGREL    # IP
	.long	-1                      # ToState
	.long	.Ltmp10@IMGREL+1        # IP
	.long	0                       # ToState
	.long	.Ltmp13@IMGREL+1        # IP
	.long	-1                      # ToState
	.section	.text,"xr",one_only,"??0array@json@boost@@QEAA@_KAEBVvalue@12@Vstorage_ptr@12@@Z"
                                        # -- End function
	.def	 "??0value@json@boost@@QEAA@AEBV012@Vstorage_ptr@12@@Z";
	.scl	2;
	.type	32;
	.endef
	.section	.text,"xr",one_only,"??0value@json@boost@@QEAA@AEBV012@Vstorage_ptr@12@@Z"
	.globl	"??0value@json@boost@@QEAA@AEBV012@Vstorage_ptr@12@@Z" # -- Begin function ??0value@json@boost@@QEAA@AEBV012@Vstorage_ptr@12@@Z
	.p2align	4, 0x90
"??0value@json@boost@@QEAA@AEBV012@Vstorage_ptr@12@@Z": # @"??0value@json@boost@@QEAA@AEBV012@Vstorage_ptr@12@@Z"
.Lfunc_begin4:
.seh_proc "??0value@json@boost@@QEAA@AEBV012@Vstorage_ptr@12@@Z"
	.seh_handler __CxxFrameHandler3, @unwind, @except
# %bb.0:
	push	rbp
	.seh_pushreg rbp
	push	rsi
	.seh_pushreg rsi
	push	rdi
	.seh_pushreg rdi
	sub	rsp, 80
	.seh_stackalloc 80
	lea	rbp, [rsp + 80]
	.seh_setframe rbp, 80
	.seh_endprologue
	mov	qword ptr [rbp - 8], -2
	mov	qword ptr [rbp - 16], r8 # 8-byte Spill
	mov	rdi, rcx
	movzx	eax, byte ptr [rdx + 8]
	and	eax, 63
	cmp	al, 7
	ja	.LBB10_10
# %bb.1:
	mov	rsi, qword ptr [rbp - 16] # 8-byte Reload
	lea	rcx, [rip + .LJTI10_0]
	movsxd	rax, dword ptr [rcx + 4*rax]
	add	rax, rcx
	jmp	rax
.LBB10_3:
	mov	rax, qword ptr [rsi]
	mov	qword ptr [rsi], 0
	mov	qword ptr [rbp - 32], rax
.Ltmp16:
	lea	r8, [rbp - 32]
	mov	rcx, rdi
	call	"??0array@json@boost@@QEAA@AEBV012@Vstorage_ptr@12@@Z"
.Ltmp17:
	jmp	.LBB10_10
.LBB10_2:
	mov	rax, qword ptr [rsi]
	mov	qword ptr [rsi], 0
	mov	qword ptr [rbp - 40], rax
.Ltmp18:
	lea	r8, [rbp - 40]
	mov	rcx, rdi
	call	"??0object@json@boost@@QEAA@AEBV012@Vstorage_ptr@12@@Z"
.Ltmp19:
	jmp	.LBB10_10
.LBB10_4:
	mov	rax, qword ptr [rsi]
	mov	qword ptr [rsi], 0
	mov	qword ptr [rbp - 24], rax
.Ltmp14:
	lea	r8, [rbp - 24]
	mov	rcx, rdi
	call	"??0string@json@boost@@QEAA@AEBV012@Vstorage_ptr@12@@Z"
.Ltmp15:
	jmp	.LBB10_10
.LBB10_5:
	mov	rax, qword ptr [rsi]
	mov	qword ptr [rsi], 0
	mov	rcx, qword ptr [rdx + 16]
	mov	qword ptr [rdi], rax
	mov	byte ptr [rdi + 8], 3
	mov	qword ptr [rdi + 16], rcx
	jmp	.LBB10_10
.LBB10_6:
	mov	rax, qword ptr [rsi]
	mov	qword ptr [rsi], 0
	mov	rcx, qword ptr [rdx + 16]
	mov	qword ptr [rdi], rax
	mov	byte ptr [rdi + 8], 4
	mov	qword ptr [rdi + 16], rcx
	jmp	.LBB10_10
.LBB10_7:
	mov	rax, qword ptr [rsi]
	mov	qword ptr [rsi], 0
	mov	rcx, qword ptr [rdx + 16]
	mov	qword ptr [rdi], rax
	mov	byte ptr [rdi + 8], 5
	mov	qword ptr [rdi + 16], rcx
	jmp	.LBB10_10
.LBB10_8:
	mov	rax, qword ptr [rsi]
	mov	qword ptr [rsi], 0
	mov	cl, byte ptr [rdx + 9]
	mov	qword ptr [rdi], rax
	mov	byte ptr [rdi + 8], 6
	mov	byte ptr [rdi + 9], cl
	jmp	.LBB10_10
.LBB10_9:
	mov	rax, qword ptr [rsi]
	mov	qword ptr [rsi], 0
	mov	qword ptr [rdi], rax
	mov	byte ptr [rdi + 8], 7
.LBB10_10:
	mov	rax, qword ptr [rbp - 16] # 8-byte Reload
	mov	rcx, qword ptr [rax]
	test	cl, 1
	je	.LBB10_14
# %bb.11:
	and	rcx, -4
	mov	rax, -1
	lock		xadd	qword ptr [rcx + 8], rax
	test	rcx, rcx
	je	.LBB10_14
# %bb.12:
	cmp	rax, 1
	jne	.LBB10_14
# %bb.13:
	mov	rax, qword ptr [rcx]
	mov	edx, 1
	call	qword ptr [rax]
.LBB10_14:
	mov	rax, rdi
	add	rsp, 80
	pop	rdi
	pop	rsi
	pop	rbp
	ret
	.seh_handlerdata
	.long	("$cppxdata$??0value@json@boost@@QEAA@AEBV012@Vstorage_ptr@12@@Z")@IMGREL
	.section	.text,"xr",one_only,"??0value@json@boost@@QEAA@AEBV012@Vstorage_ptr@12@@Z"
	.seh_endproc
	.def	 "?dtor$15@?0???0value@json@boost@@QEAA@AEBV012@Vstorage_ptr@12@@Z@4HA";
	.scl	3;
	.type	32;
	.endef
	.p2align	4, 0x90
"?dtor$15@?0???0value@json@boost@@QEAA@AEBV012@Vstorage_ptr@12@@Z@4HA":
.seh_proc "?dtor$15@?0???0value@json@boost@@QEAA@AEBV012@Vstorage_ptr@12@@Z@4HA"
.LBB10_15:
	mov	qword ptr [rsp + 16], rdx
	push	rbp
	.seh_pushreg rbp
	push	rsi
	.seh_pushreg rsi
	push	rdi
	.seh_pushreg rdi
	sub	rsp, 32
	.seh_stackalloc 32
	lea	rbp, [rdx + 80]
	.seh_endprologue
	mov	rax, qword ptr [rbp - 16] # 8-byte Reload
	mov	rcx, qword ptr [rax]
	test	cl, 1
	je	.LBB10_19
# %bb.16:
	and	rcx, -4
	mov	rax, -1
	lock		xadd	qword ptr [rcx + 8], rax
	test	rcx, rcx
	je	.LBB10_19
# %bb.17:
	cmp	rax, 1
	jne	.LBB10_19
# %bb.18:
	mov	rax, qword ptr [rcx]
	mov	edx, 1
	call	qword ptr [rax]
.LBB10_19:
	nop
	add	rsp, 32
	pop	rdi
	pop	rsi
	pop	rbp
	ret                             # CLEANUPRET
.Lfunc_end4:
	.p2align	2, 0x90
.LJTI10_0:
	.long	.LBB10_3-.LJTI10_0
	.long	.LBB10_2-.LJTI10_0
	.long	.LBB10_4-.LJTI10_0
	.long	.LBB10_5-.LJTI10_0
	.long	.LBB10_6-.LJTI10_0
	.long	.LBB10_7-.LJTI10_0
	.long	.LBB10_8-.LJTI10_0
	.long	.LBB10_9-.LJTI10_0
	.seh_handlerdata
	.section	.text,"xr",one_only,"??0value@json@boost@@QEAA@AEBV012@Vstorage_ptr@12@@Z"
	.seh_endproc
	.section	.xdata,"dr",associative,"??0value@json@boost@@QEAA@AEBV012@Vstorage_ptr@12@@Z"
	.p2align	2
"$cppxdata$??0value@json@boost@@QEAA@AEBV012@Vstorage_ptr@12@@Z":
	.long	429065506               # MagicNumber
	.long	1                       # MaxState
	.long	("$stateUnwindMap$??0value@json@boost@@QEAA@AEBV012@Vstorage_ptr@12@@Z")@IMGREL # UnwindMap
	.long	0                       # NumTryBlocks
	.long	0                       # TryBlockMap
	.long	3                       # IPMapEntries
	.long	("$ip2state$??0value@json@boost@@QEAA@AEBV012@Vstorage_ptr@12@@Z")@IMGREL # IPToStateXData
	.long	72                      # UnwindHelp
	.long	0                       # ESTypeList
	.long	1                       # EHFlags
"$stateUnwindMap$??0value@json@boost@@QEAA@AEBV012@Vstorage_ptr@12@@Z":
	.long	-1                      # ToState
	.long	"?dtor$15@?0???0value@json@boost@@QEAA@AEBV012@Vstorage_ptr@12@@Z@4HA"@IMGREL # Action
"$ip2state$??0value@json@boost@@QEAA@AEBV012@Vstorage_ptr@12@@Z":
	.long	.Lfunc_begin4@IMGREL    # IP
	.long	-1                      # ToState
	.long	.Ltmp16@IMGREL+1        # IP
	.long	0                       # ToState
	.long	.Ltmp15@IMGREL+1        # IP
	.long	-1                      # ToState
	.section	.text,"xr",one_only,"??0value@json@boost@@QEAA@AEBV012@Vstorage_ptr@12@@Z"
                                        # -- End function
	.def	 "??0array@json@boost@@QEAA@_KVstorage_ptr@12@@Z";
	.scl	2;
	.type	32;
	.endef
	.section	.text,"xr",one_only,"??0array@json@boost@@QEAA@_KVstorage_ptr@12@@Z"
	.globl	"??0array@json@boost@@QEAA@_KVstorage_ptr@12@@Z" # -- Begin function ??0array@json@boost@@QEAA@_KVstorage_ptr@12@@Z
	.p2align	4, 0x90
"??0array@json@boost@@QEAA@_KVstorage_ptr@12@@Z": # @"??0array@json@boost@@QEAA@_KVstorage_ptr@12@@Z"
.Lfunc_begin5:
.seh_proc "??0array@json@boost@@QEAA@_KVstorage_ptr@12@@Z"
	.seh_handler __CxxFrameHandler3, @unwind, @except
# %bb.0:
	push	rbp
	.seh_pushreg rbp
	push	r14
	.seh_pushreg r14
	push	rsi
	.seh_pushreg rsi
	push	rdi
	.seh_pushreg rdi
	push	rbx
	.seh_pushreg rbx
	sub	rsp, 64
	.seh_stackalloc 64
	lea	rbp, [rsp + 64]
	.seh_setframe rbp, 64
	.seh_endprologue
	mov	qword ptr [rbp - 8], -2
	mov	rdi, rdx
	mov	rax, qword ptr [r8]
	mov	qword ptr [rbp - 32], r8 # 8-byte Spill
	mov	qword ptr [r8], 0
	mov	qword ptr [rcx], rax
	mov	byte ptr [rcx + 8], 0
	lea	rax, [rcx + 16]
	mov	qword ptr [rbp - 24], rax # 8-byte Spill
	mov	qword ptr [rbp - 16], rcx # 8-byte Spill
	mov	qword ptr [rcx + 16], 0
	test	rdx, rdx
	je	.LBB11_2
# %bb.1:
.Ltmp20:
	mov	rcx, qword ptr [rbp - 16] # 8-byte Reload
	mov	rdx, rdi
	call	"?reserve_impl@array@json@boost@@AEAAX_K@Z"
.Ltmp21:
.LBB11_2:
	mov	r14, qword ptr [rbp - 16] # 8-byte Reload
	mov	rbx, qword ptr [rbp - 24] # 8-byte Reload
	.p2align	4, 0x90
.LBB11_3:                               # =>This Inner Loop Header: Depth=1
	mov	rcx, qword ptr [rbx]
	test	rcx, rcx
	je	.LBB11_4
# %bb.5:                                #   in Loop: Header=BB11_3 Depth=1
	mov	eax, dword ptr [rcx]
	cmp	rax, rdi
	jb	.LBB11_7
	jmp	.LBB11_14
	.p2align	4, 0x90
.LBB11_4:                               #   in Loop: Header=BB11_3 Depth=1
	xor	eax, eax
	cmp	rax, rdi
	jae	.LBB11_14
.LBB11_7:                               #   in Loop: Header=BB11_3 Depth=1
	lea	rax, [rcx + 8]
	test	rcx, rcx
	cmove	rax, rcx
	je	.LBB11_8
# %bb.9:                                #   in Loop: Header=BB11_3 Depth=1
	mov	ecx, dword ptr [rcx]
	jmp	.LBB11_10
	.p2align	4, 0x90
.LBB11_8:                               #   in Loop: Header=BB11_3 Depth=1
	xor	ecx, ecx
.LBB11_10:                              #   in Loop: Header=BB11_3 Depth=1
	mov	rsi, qword ptr [r14]
	test	sil, 1
	je	.LBB11_12
# %bb.11:                               #   in Loop: Header=BB11_3 Depth=1
	mov	rdx, rsi
	and	rdx, -4
	lock		add	qword ptr [rdx + 8], 1
.LBB11_12:                              #   in Loop: Header=BB11_3 Depth=1
	lea	rcx, [rcx + 2*rcx]
	mov	qword ptr [rax + 8*rcx], rsi
	mov	byte ptr [rax + 8*rcx + 8], 7
	mov	rax, qword ptr [rbx]
	test	rax, rax
	je	.LBB11_3
# %bb.13:                               #   in Loop: Header=BB11_3 Depth=1
	add	dword ptr [rax], 1
	jmp	.LBB11_3
.LBB11_14:
	mov	rax, qword ptr [rbp - 32] # 8-byte Reload
	mov	rcx, qword ptr [rax]
	test	cl, 1
	je	.LBB11_18
# %bb.15:
	and	rcx, -4
	mov	rax, -1
	lock		xadd	qword ptr [rcx + 8], rax
	test	rcx, rcx
	je	.LBB11_18
# %bb.16:
	cmp	rax, 1
	jne	.LBB11_18
# %bb.17:
	mov	rax, qword ptr [rcx]
	mov	edx, 1
	call	qword ptr [rax]
.LBB11_18:
	mov	rax, r14
	add	rsp, 64
	pop	rbx
	pop	rdi
	pop	rsi
	pop	r14
	pop	rbp
	ret
	.seh_handlerdata
	.long	("$cppxdata$??0array@json@boost@@QEAA@_KVstorage_ptr@12@@Z")@IMGREL
	.section	.text,"xr",one_only,"??0array@json@boost@@QEAA@_KVstorage_ptr@12@@Z"
	.seh_endproc
	.def	 "?dtor$19@?0???0array@json@boost@@QEAA@_KVstorage_ptr@12@@Z@4HA";
	.scl	3;
	.type	32;
	.endef
	.p2align	4, 0x90
"?dtor$19@?0???0array@json@boost@@QEAA@_KVstorage_ptr@12@@Z@4HA":
.seh_proc "?dtor$19@?0???0array@json@boost@@QEAA@_KVstorage_ptr@12@@Z@4HA"
.LBB11_19:
	mov	qword ptr [rsp + 16], rdx
	push	rbp
	.seh_pushreg rbp
	push	r14
	.seh_pushreg r14
	push	rsi
	.seh_pushreg rsi
	push	rdi
	.seh_pushreg rdi
	push	rbx
	.seh_pushreg rbx
	sub	rsp, 32
	.seh_stackalloc 32
	lea	rbp, [rdx + 64]
	.seh_endprologue
	mov	rcx, qword ptr [rbp - 24] # 8-byte Reload
	mov	rsi, qword ptr [rbp - 16] # 8-byte Reload
	mov	rdx, rsi
	call	"?destroy@array_impl@detail@json@boost@@QEAAXAEBVstorage_ptr@34@@Z"
	mov	rcx, qword ptr [rsi]
	test	cl, 1
	je	.LBB11_23
# %bb.20:
	and	rcx, -4
	mov	rax, -1
	lock		xadd	qword ptr [rcx + 8], rax
	test	rcx, rcx
	je	.LBB11_23
# %bb.21:
	cmp	rax, 1
	jne	.LBB11_23
# %bb.22:
	mov	rax, qword ptr [rcx]
	mov	edx, 1
	call	qword ptr [rax]
.LBB11_23:
	mov	rax, qword ptr [rbp - 32] # 8-byte Reload
	mov	rcx, qword ptr [rax]
	test	cl, 1
	je	.LBB11_27
# %bb.24:
	and	rcx, -4
	mov	rax, -1
	lock		xadd	qword ptr [rcx + 8], rax
	test	rcx, rcx
	je	.LBB11_27
# %bb.25:
	cmp	rax, 1
	jne	.LBB11_27
# %bb.26:
	mov	rax, qword ptr [rcx]
	mov	edx, 1
	call	qword ptr [rax]
.LBB11_27:
	nop
	add	rsp, 32
	pop	rbx
	pop	rdi
	pop	rsi
	pop	r14
	pop	rbp
	ret                             # CLEANUPRET
.Lfunc_end5:
	.seh_handlerdata
	.section	.text,"xr",one_only,"??0array@json@boost@@QEAA@_KVstorage_ptr@12@@Z"
	.seh_endproc
	.section	.xdata,"dr",associative,"??0array@json@boost@@QEAA@_KVstorage_ptr@12@@Z"
	.p2align	2
"$cppxdata$??0array@json@boost@@QEAA@_KVstorage_ptr@12@@Z":
	.long	429065506               # MagicNumber
	.long	1                       # MaxState
	.long	("$stateUnwindMap$??0array@json@boost@@QEAA@_KVstorage_ptr@12@@Z")@IMGREL # UnwindMap
	.long	0                       # NumTryBlocks
	.long	0                       # TryBlockMap
	.long	3                       # IPMapEntries
	.long	("$ip2state$??0array@json@boost@@QEAA@_KVstorage_ptr@12@@Z")@IMGREL # IPToStateXData
	.long	56                      # UnwindHelp
	.long	0                       # ESTypeList
	.long	1                       # EHFlags
"$stateUnwindMap$??0array@json@boost@@QEAA@_KVstorage_ptr@12@@Z":
	.long	-1                      # ToState
	.long	"?dtor$19@?0???0array@json@boost@@QEAA@_KVstorage_ptr@12@@Z@4HA"@IMGREL # Action
"$ip2state$??0array@json@boost@@QEAA@_KVstorage_ptr@12@@Z":
	.long	.Lfunc_begin5@IMGREL    # IP
	.long	-1                      # ToState
	.long	.Ltmp20@IMGREL+1        # IP
	.long	0                       # ToState
	.long	.Ltmp21@IMGREL+1        # IP
	.long	-1                      # ToState
	.section	.text,"xr",one_only,"??0array@json@boost@@QEAA@_KVstorage_ptr@12@@Z"
                                        # -- End function
	.def	 "??0array@json@boost@@QEAA@AEBV012@@Z";
	.scl	2;
	.type	32;
	.endef
	.section	.text,"xr",one_only,"??0array@json@boost@@QEAA@AEBV012@@Z"
	.globl	"??0array@json@boost@@QEAA@AEBV012@@Z" # -- Begin function ??0array@json@boost@@QEAA@AEBV012@@Z
	.p2align	4, 0x90
"??0array@json@boost@@QEAA@AEBV012@@Z": # @"??0array@json@boost@@QEAA@AEBV012@@Z"
.Lfunc_begin6:
.seh_proc "??0array@json@boost@@QEAA@AEBV012@@Z"
	.seh_handler __CxxFrameHandler3, @unwind, @except
# %bb.0:
	push	rbp
	.seh_pushreg rbp
	push	r14
	.seh_pushreg r14
	push	rsi
	.seh_pushreg rsi
	push	rdi
	.seh_pushreg rdi
	push	rbx
	.seh_pushreg rbx
	sub	rsp, 64
	.seh_stackalloc 64
	lea	rbp, [rsp + 64]
	.seh_setframe rbp, 64
	.seh_endprologue
	mov	qword ptr [rbp - 8], -2
	mov	rbx, rdx
	mov	rdi, rcx
	mov	rax, qword ptr [rdx]
	mov	qword ptr [rcx], rax
	test	al, 1
	je	.LBB12_2
# %bb.1:
	and	rax, -4
	lock		add	qword ptr [rax + 8], 1
.LBB12_2:
	mov	byte ptr [rdi + 8], 0
	mov	qword ptr [rdi + 16], 0
	mov	rsi, qword ptr [rbx + 16]
	test	rsi, rsi
	je	.LBB12_17
# %bb.3:
	lea	rax, [rdi + 16]
	mov	qword ptr [rbp - 24], rax # 8-byte Spill
	mov	edx, dword ptr [rsi]
	test	rdx, rdx
	mov	qword ptr [rbp - 16], rdi # 8-byte Spill
	je	.LBB12_6
# %bb.4:
.Ltmp22:
	mov	rcx, rdi
	call	"?reserve_impl@array@json@boost@@AEAAX_K@Z"
.Ltmp23:
# %bb.5:
	mov	rsi, qword ptr [rbx + 16]
	test	rsi, rsi
	mov	rdi, qword ptr [rbp - 16] # 8-byte Reload
	je	.LBB12_17
.LBB12_6:
	mov	eax, dword ptr [rsi]
	test	rax, rax
	je	.LBB12_17
# %bb.7:
	lea	rax, [rax + 2*rax]
	lea	rbx, [rsi + 8*rax]
	add	rbx, 8
	add	rsi, 8
	lea	r14, [rbp - 32]
	jmp	.LBB12_8
	.p2align	4, 0x90
.LBB12_16:                              #   in Loop: Header=BB12_8 Depth=1
	add	rsi, 24
	cmp	rsi, rbx
	je	.LBB12_17
.LBB12_8:                               # =>This Inner Loop Header: Depth=1
	mov	rcx, qword ptr [rdi + 16]
	lea	rax, [rcx + 8]
	test	rcx, rcx
	cmove	rax, rcx
	je	.LBB12_9
# %bb.10:                               #   in Loop: Header=BB12_8 Depth=1
	mov	ecx, dword ptr [rcx]
	jmp	.LBB12_11
	.p2align	4, 0x90
.LBB12_9:                               #   in Loop: Header=BB12_8 Depth=1
	xor	ecx, ecx
.LBB12_11:                              #   in Loop: Header=BB12_8 Depth=1
	lea	rcx, [rcx + 2*rcx]
	lea	rcx, [rax + 8*rcx]
	mov	rax, qword ptr [rdi]
	mov	qword ptr [rbp - 32], rax
	test	al, 1
	je	.LBB12_13
# %bb.12:                               #   in Loop: Header=BB12_8 Depth=1
	and	rax, -4
	lock		add	qword ptr [rax + 8], 1
.LBB12_13:                              #   in Loop: Header=BB12_8 Depth=1
.Ltmp24:
	mov	rdx, rsi
	mov	r8, r14
	call	"??0value@json@boost@@QEAA@AEBV012@Vstorage_ptr@12@@Z"
.Ltmp25:
# %bb.14:                               #   in Loop: Header=BB12_8 Depth=1
	mov	rdi, qword ptr [rbp - 16] # 8-byte Reload
	mov	rax, qword ptr [rdi + 16]
	test	rax, rax
	je	.LBB12_16
# %bb.15:                               #   in Loop: Header=BB12_8 Depth=1
	add	dword ptr [rax], 1
	jmp	.LBB12_16
.LBB12_17:
	mov	rax, rdi
	add	rsp, 64
	pop	rbx
	pop	rdi
	pop	rsi
	pop	r14
	pop	rbp
	ret
	.seh_handlerdata
	.long	("$cppxdata$??0array@json@boost@@QEAA@AEBV012@@Z")@IMGREL
	.section	.text,"xr",one_only,"??0array@json@boost@@QEAA@AEBV012@@Z"
	.seh_endproc
	.def	 "?dtor$18@?0???0array@json@boost@@QEAA@AEBV012@@Z@4HA";
	.scl	3;
	.type	32;
	.endef
	.p2align	4, 0x90
"?dtor$18@?0???0array@json@boost@@QEAA@AEBV012@@Z@4HA":
.seh_proc "?dtor$18@?0???0array@json@boost@@QEAA@AEBV012@@Z@4HA"
.LBB12_18:
	mov	qword ptr [rsp + 16], rdx
	push	rbp
	.seh_pushreg rbp
	push	r14
	.seh_pushreg r14
	push	rsi
	.seh_pushreg rsi
	push	rdi
	.seh_pushreg rdi
	push	rbx
	.seh_pushreg rbx
	sub	rsp, 32
	.seh_stackalloc 32
	lea	rbp, [rdx + 64]
	.seh_endprologue
	mov	rcx, qword ptr [rbp - 24] # 8-byte Reload
	mov	rsi, qword ptr [rbp - 16] # 8-byte Reload
	mov	rdx, rsi
	call	"?destroy@array_impl@detail@json@boost@@QEAAXAEBVstorage_ptr@34@@Z"
	mov	rcx, qword ptr [rsi]
	test	cl, 1
	je	.LBB12_22
# %bb.19:
	and	rcx, -4
	mov	rax, -1
	lock		xadd	qword ptr [rcx + 8], rax
	test	rcx, rcx
	je	.LBB12_22
# %bb.20:
	cmp	rax, 1
	jne	.LBB12_22
# %bb.21:
	mov	rax, qword ptr [rcx]
	mov	edx, 1
	call	qword ptr [rax]
.LBB12_22:
	nop
	add	rsp, 32
	pop	rbx
	pop	rdi
	pop	rsi
	pop	r14
	pop	rbp
	ret                             # CLEANUPRET
.Lfunc_end6:
	.seh_handlerdata
	.section	.text,"xr",one_only,"??0array@json@boost@@QEAA@AEBV012@@Z"
	.seh_endproc
	.section	.xdata,"dr",associative,"??0array@json@boost@@QEAA@AEBV012@@Z"
	.p2align	2
"$cppxdata$??0array@json@boost@@QEAA@AEBV012@@Z":
	.long	429065506               # MagicNumber
	.long	1                       # MaxState
	.long	("$stateUnwindMap$??0array@json@boost@@QEAA@AEBV012@@Z")@IMGREL # UnwindMap
	.long	0                       # NumTryBlocks
	.long	0                       # TryBlockMap
	.long	3                       # IPMapEntries
	.long	("$ip2state$??0array@json@boost@@QEAA@AEBV012@@Z")@IMGREL # IPToStateXData
	.long	56                      # UnwindHelp
	.long	0                       # ESTypeList
	.long	1                       # EHFlags
"$stateUnwindMap$??0array@json@boost@@QEAA@AEBV012@@Z":
	.long	-1                      # ToState
	.long	"?dtor$18@?0???0array@json@boost@@QEAA@AEBV012@@Z@4HA"@IMGREL # Action
"$ip2state$??0array@json@boost@@QEAA@AEBV012@@Z":
	.long	.Lfunc_begin6@IMGREL    # IP
	.long	-1                      # ToState
	.long	.Ltmp22@IMGREL+1        # IP
	.long	0                       # ToState
	.long	.Ltmp25@IMGREL+1        # IP
	.long	-1                      # ToState
	.section	.text,"xr",one_only,"??0array@json@boost@@QEAA@AEBV012@@Z"
                                        # -- End function
	.def	 "??0array@json@boost@@QEAA@AEBV012@Vstorage_ptr@12@@Z";
	.scl	2;
	.type	32;
	.endef
	.section	.text,"xr",one_only,"??0array@json@boost@@QEAA@AEBV012@Vstorage_ptr@12@@Z"
	.globl	"??0array@json@boost@@QEAA@AEBV012@Vstorage_ptr@12@@Z" # -- Begin function ??0array@json@boost@@QEAA@AEBV012@Vstorage_ptr@12@@Z
	.p2align	4, 0x90
"??0array@json@boost@@QEAA@AEBV012@Vstorage_ptr@12@@Z": # @"??0array@json@boost@@QEAA@AEBV012@Vstorage_ptr@12@@Z"
.Lfunc_begin7:
.seh_proc "??0array@json@boost@@QEAA@AEBV012@Vstorage_ptr@12@@Z"
	.seh_handler __CxxFrameHandler3, @unwind, @except
# %bb.0:
	push	rbp
	.seh_pushreg rbp
	push	r14
	.seh_pushreg r14
	push	rsi
	.seh_pushreg rsi
	push	rdi
	.seh_pushreg rdi
	push	rbx
	.seh_pushreg rbx
	sub	rsp, 80
	.seh_stackalloc 80
	lea	rbp, [rsp + 80]
	.seh_setframe rbp, 80
	.seh_endprologue
	mov	qword ptr [rbp - 8], -2
	mov	rax, qword ptr [r8]
	mov	qword ptr [rbp - 32], r8 # 8-byte Spill
	mov	qword ptr [r8], 0
	mov	qword ptr [rcx], rax
	mov	byte ptr [rcx + 8], 0
	lea	rdi, [rcx + 16]
	mov	qword ptr [rbp - 16], rcx # 8-byte Spill
	mov	qword ptr [rcx + 16], 0
	mov	rsi, qword ptr [rdx + 16]
	test	rsi, rsi
	mov	qword ptr [rbp - 24], rdi # 8-byte Spill
	je	.LBB13_1
# %bb.2:
	mov	rbx, rdx
	mov	edx, dword ptr [rsi]
	test	rdx, rdx
	je	.LBB13_5
# %bb.3:
.Ltmp26:
	mov	rcx, qword ptr [rbp - 16] # 8-byte Reload
	call	"?reserve_impl@array@json@boost@@AEAAX_K@Z"
.Ltmp27:
# %bb.4:
	mov	rsi, qword ptr [rbx + 16]
	test	rsi, rsi
	mov	rdi, qword ptr [rbp - 24] # 8-byte Reload
	je	.LBB13_1
.LBB13_5:
	mov	eax, dword ptr [rsi]
	add	rsi, 8
	jmp	.LBB13_6
.LBB13_1:
	xor	esi, esi
	xor	eax, eax
.LBB13_6:
	lea	rax, [rax + 2*rax]
	lea	rbx, [rsi + 8*rax]
	lea	r14, [rbp - 40]
	jmp	.LBB13_7
	.p2align	4, 0x90
.LBB13_16:                              #   in Loop: Header=BB13_7 Depth=1
	add	rsi, 24
.LBB13_7:                               # =>This Inner Loop Header: Depth=1
	cmp	rsi, rbx
	je	.LBB13_17
# %bb.8:                                #   in Loop: Header=BB13_7 Depth=1
	mov	rcx, qword ptr [rdi]
	lea	rax, [rcx + 8]
	test	rcx, rcx
	cmove	rax, rcx
	je	.LBB13_9
# %bb.10:                               #   in Loop: Header=BB13_7 Depth=1
	mov	ecx, dword ptr [rcx]
	jmp	.LBB13_11
	.p2align	4, 0x90
.LBB13_9:                               #   in Loop: Header=BB13_7 Depth=1
	xor	ecx, ecx
.LBB13_11:                              #   in Loop: Header=BB13_7 Depth=1
	lea	rcx, [rcx + 2*rcx]
	lea	rcx, [rax + 8*rcx]
	mov	rax, qword ptr [rbp - 16] # 8-byte Reload
	mov	rax, qword ptr [rax]
	mov	qword ptr [rbp - 40], rax
	test	al, 1
	je	.LBB13_13
# %bb.12:                               #   in Loop: Header=BB13_7 Depth=1
	and	rax, -4
	lock		add	qword ptr [rax + 8], 1
.LBB13_13:                              #   in Loop: Header=BB13_7 Depth=1
.Ltmp28:
	mov	rdx, rsi
	mov	r8, r14
	call	"??0value@json@boost@@QEAA@AEBV012@Vstorage_ptr@12@@Z"
.Ltmp29:
# %bb.14:                               #   in Loop: Header=BB13_7 Depth=1
	mov	rdi, qword ptr [rbp - 24] # 8-byte Reload
	mov	rax, qword ptr [rdi]
	test	rax, rax
	je	.LBB13_16
# %bb.15:                               #   in Loop: Header=BB13_7 Depth=1
	add	dword ptr [rax], 1
	jmp	.LBB13_16
.LBB13_17:
	mov	rax, qword ptr [rbp - 32] # 8-byte Reload
	mov	rcx, qword ptr [rax]
	test	cl, 1
	je	.LBB13_21
# %bb.18:
	and	rcx, -4
	mov	rax, -1
	lock		xadd	qword ptr [rcx + 8], rax
	test	rcx, rcx
	je	.LBB13_21
# %bb.19:
	cmp	rax, 1
	jne	.LBB13_21
# %bb.20:
	mov	rax, qword ptr [rcx]
	mov	edx, 1
	call	qword ptr [rax]
.LBB13_21:
	mov	rax, qword ptr [rbp - 16] # 8-byte Reload
	add	rsp, 80
	pop	rbx
	pop	rdi
	pop	rsi
	pop	r14
	pop	rbp
	ret
	.seh_handlerdata
	.long	("$cppxdata$??0array@json@boost@@QEAA@AEBV012@Vstorage_ptr@12@@Z")@IMGREL
	.section	.text,"xr",one_only,"??0array@json@boost@@QEAA@AEBV012@Vstorage_ptr@12@@Z"
	.seh_endproc
	.def	 "?dtor$22@?0???0array@json@boost@@QEAA@AEBV012@Vstorage_ptr@12@@Z@4HA";
	.scl	3;
	.type	32;
	.endef
	.p2align	4, 0x90
"?dtor$22@?0???0array@json@boost@@QEAA@AEBV012@Vstorage_ptr@12@@Z@4HA":
.seh_proc "?dtor$22@?0???0array@json@boost@@QEAA@AEBV012@Vstorage_ptr@12@@Z@4HA"
.LBB13_22:
	mov	qword ptr [rsp + 16], rdx
	push	rbp
	.seh_pushreg rbp
	push	r14
	.seh_pushreg r14
	push	rsi
	.seh_pushreg rsi
	push	rdi
	.seh_pushreg rdi
	push	rbx
	.seh_pushreg rbx
	sub	rsp, 32
	.seh_stackalloc 32
	lea	rbp, [rdx + 80]
	.seh_endprologue
	mov	rcx, qword ptr [rbp - 24] # 8-byte Reload
	mov	rsi, qword ptr [rbp - 16] # 8-byte Reload
	mov	rdx, rsi
	call	"?destroy@array_impl@detail@json@boost@@QEAAXAEBVstorage_ptr@34@@Z"
	mov	rcx, qword ptr [rsi]
	test	cl, 1
	je	.LBB13_26
# %bb.23:
	and	rcx, -4
	mov	rax, -1
	lock		xadd	qword ptr [rcx + 8], rax
	test	rcx, rcx
	je	.LBB13_26
# %bb.24:
	cmp	rax, 1
	jne	.LBB13_26
# %bb.25:
	mov	rax, qword ptr [rcx]
	mov	edx, 1
	call	qword ptr [rax]
.LBB13_26:
	mov	rax, qword ptr [rbp - 32] # 8-byte Reload
	mov	rcx, qword ptr [rax]
	test	cl, 1
	je	.LBB13_30
# %bb.27:
	and	rcx, -4
	mov	rax, -1
	lock		xadd	qword ptr [rcx + 8], rax
	test	rcx, rcx
	je	.LBB13_30
# %bb.28:
	cmp	rax, 1
	jne	.LBB13_30
# %bb.29:
	mov	rax, qword ptr [rcx]
	mov	edx, 1
	call	qword ptr [rax]
.LBB13_30:
	nop
	add	rsp, 32
	pop	rbx
	pop	rdi
	pop	rsi
	pop	r14
	pop	rbp
	ret                             # CLEANUPRET
.Lfunc_end7:
	.seh_handlerdata
	.section	.text,"xr",one_only,"??0array@json@boost@@QEAA@AEBV012@Vstorage_ptr@12@@Z"
	.seh_endproc
	.section	.xdata,"dr",associative,"??0array@json@boost@@QEAA@AEBV012@Vstorage_ptr@12@@Z"
	.p2align	2
"$cppxdata$??0array@json@boost@@QEAA@AEBV012@Vstorage_ptr@12@@Z":
	.long	429065506               # MagicNumber
	.long	1                       # MaxState
	.long	("$stateUnwindMap$??0array@json@boost@@QEAA@AEBV012@Vstorage_ptr@12@@Z")@IMGREL # UnwindMap
	.long	0                       # NumTryBlocks
	.long	0                       # TryBlockMap
	.long	3                       # IPMapEntries
	.long	("$ip2state$??0array@json@boost@@QEAA@AEBV012@Vstorage_ptr@12@@Z")@IMGREL # IPToStateXData
	.long	72                      # UnwindHelp
	.long	0                       # ESTypeList
	.long	1                       # EHFlags
"$stateUnwindMap$??0array@json@boost@@QEAA@AEBV012@Vstorage_ptr@12@@Z":
	.long	-1                      # ToState
	.long	"?dtor$22@?0???0array@json@boost@@QEAA@AEBV012@Vstorage_ptr@12@@Z@4HA"@IMGREL # Action
"$ip2state$??0array@json@boost@@QEAA@AEBV012@Vstorage_ptr@12@@Z":
	.long	.Lfunc_begin7@IMGREL    # IP
	.long	-1                      # ToState
	.long	.Ltmp26@IMGREL+1        # IP
	.long	0                       # ToState
	.long	.Ltmp29@IMGREL+1        # IP
	.long	-1                      # ToState
	.section	.text,"xr",one_only,"??0array@json@boost@@QEAA@AEBV012@Vstorage_ptr@12@@Z"
                                        # -- End function
	.def	 "??0array@json@boost@@QEAA@V?$pilfered@Varray@json@boost@@@2@@Z";
	.scl	2;
	.type	32;
	.endef
	.section	.text,"xr",one_only,"??0array@json@boost@@QEAA@V?$pilfered@Varray@json@boost@@@2@@Z"
	.globl	"??0array@json@boost@@QEAA@V?$pilfered@Varray@json@boost@@@2@@Z" # -- Begin function ??0array@json@boost@@QEAA@V?$pilfered@Varray@json@boost@@@2@@Z
	.p2align	4, 0x90
"??0array@json@boost@@QEAA@V?$pilfered@Varray@json@boost@@@2@@Z": # @"??0array@json@boost@@QEAA@V?$pilfered@Varray@json@boost@@@2@@Z"
# %bb.0:
	mov	rax, rcx
	mov	rcx, qword ptr [rdx]
	mov	qword ptr [rax], rcx
	mov	qword ptr [rdx], 0
	mov	byte ptr [rax + 8], 0
	mov	rcx, qword ptr [rdx + 16]
	mov	qword ptr [rdx + 16], 0
	mov	qword ptr [rax + 16], rcx
	ret
                                        # -- End function
	.def	 "??0array@json@boost@@QEAA@$$QEAV012@@Z";
	.scl	2;
	.type	32;
	.endef
	.section	.text,"xr",one_only,"??0array@json@boost@@QEAA@$$QEAV012@@Z"
	.globl	"??0array@json@boost@@QEAA@$$QEAV012@@Z" # -- Begin function ??0array@json@boost@@QEAA@$$QEAV012@@Z
	.p2align	4, 0x90
"??0array@json@boost@@QEAA@$$QEAV012@@Z": # @"??0array@json@boost@@QEAA@$$QEAV012@@Z"
# %bb.0:
	mov	rax, rcx
	mov	rcx, qword ptr [rdx]
	mov	qword ptr [rax], rcx
	test	cl, 1
	je	.LBB15_2
# %bb.1:
	and	rcx, -4
	lock		add	qword ptr [rcx + 8], 1
.LBB15_2:
	mov	byte ptr [rax + 8], 0
	mov	rcx, qword ptr [rdx + 16]
	mov	qword ptr [rdx + 16], 0
	mov	qword ptr [rax + 16], rcx
	ret
                                        # -- End function
	.def	 "??0array@json@boost@@QEAA@$$QEAV012@Vstorage_ptr@12@@Z";
	.scl	2;
	.type	32;
	.endef
	.section	.text,"xr",one_only,"??0array@json@boost@@QEAA@$$QEAV012@Vstorage_ptr@12@@Z"
	.globl	"??0array@json@boost@@QEAA@$$QEAV012@Vstorage_ptr@12@@Z" # -- Begin function ??0array@json@boost@@QEAA@$$QEAV012@Vstorage_ptr@12@@Z
	.p2align	4, 0x90
"??0array@json@boost@@QEAA@$$QEAV012@Vstorage_ptr@12@@Z": # @"??0array@json@boost@@QEAA@$$QEAV012@Vstorage_ptr@12@@Z"
.Lfunc_begin8:
.seh_proc "??0array@json@boost@@QEAA@$$QEAV012@Vstorage_ptr@12@@Z"
	.seh_handler __CxxFrameHandler3, @unwind, @except
# %bb.0:
	push	rbp
	.seh_pushreg rbp
	push	r14
	.seh_pushreg r14
	push	rsi
	.seh_pushreg rsi
	push	rdi
	.seh_pushreg rdi
	push	rbx
	.seh_pushreg rbx
	sub	rsp, 80
	.seh_stackalloc 80
	lea	rbp, [rsp + 80]
	.seh_setframe rbp, 80
	.seh_endprologue
	mov	qword ptr [rbp - 8], -2
	mov	r14, rdx
	mov	rsi, rcx
	mov	rax, qword ptr [r8]
	mov	qword ptr [r8], 0
	mov	qword ptr [rcx], rax
	mov	byte ptr [rcx + 8], 0
	mov	qword ptr [rcx + 16], 0
	mov	rdi, qword ptr [rdx]
	test	rdi, rdi
	mov	qword ptr [rbp - 16], rcx # 8-byte Spill
	mov	qword ptr [rbp - 32], r8 # 8-byte Spill
	je	.LBB16_2
# %bb.1:
	and	rdi, -4
	jmp	.LBB16_6
.LBB16_2:
	mov	eax, dword ptr [rip + "?$TSS0@?1??get_default@storage_ptr@json@boost@@CAPEAVmemory_resource@pmr@container@3@XZ@4HA"]
	mov	ecx, dword ptr [rip + _tls_index]
	mov	rdx, qword ptr gs:[88]
	mov	rcx, qword ptr [rdx + 8*rcx]
	lea	rdi, [rip + "?impl@?1??get_default@storage_ptr@json@boost@@CAPEAVmemory_resource@pmr@container@4@XZ@4Vdefault_resource@detail@34@A"]
	cmp	eax, dword ptr [rcx + _Init_thread_epoch@SECREL32]
	jg	.LBB16_3
.LBB16_6:
	mov	rbx, qword ptr [rsi]
	test	rbx, rbx
	je	.LBB16_8
# %bb.7:
	and	rbx, -4
	jmp	.LBB16_12
.LBB16_8:
	mov	eax, dword ptr [rip + "?$TSS0@?1??get_default@storage_ptr@json@boost@@CAPEAVmemory_resource@pmr@container@3@XZ@4HA"]
	mov	ecx, dword ptr [rip + _tls_index]
	mov	rdx, qword ptr gs:[88]
	mov	rcx, qword ptr [rdx + 8*rcx]
	lea	rbx, [rip + "?impl@?1??get_default@storage_ptr@json@boost@@CAPEAVmemory_resource@pmr@container@4@XZ@4Vdefault_resource@detail@34@A"]
	cmp	eax, dword ptr [rcx + _Init_thread_epoch@SECREL32]
	jg	.LBB16_9
.LBB16_12:
	lea	rdx, [rsi + 16]
	cmp	rbx, rdi
	je	.LBB16_14
# %bb.13:
	mov	rax, qword ptr [rbx]
	mov	rcx, rbx
	mov	qword ptr [rbp - 24], rdx # 8-byte Spill
	mov	rdx, rdi
	call	qword ptr [rax + 24]
	mov	rdx, qword ptr [rbp - 24] # 8-byte Reload
	test	al, al
	je	.LBB16_20
.LBB16_14:
	mov	rax, qword ptr [rdx]
	mov	rcx, qword ptr [r14 + 16]
	mov	qword ptr [rdx], rcx
	mov	qword ptr [r14 + 16], rax
.LBB16_15:
	mov	rax, qword ptr [rbp - 32] # 8-byte Reload
	mov	rcx, qword ptr [rax]
	test	cl, 1
	je	.LBB16_19
# %bb.16:
	and	rcx, -4
	mov	rax, -1
	lock		xadd	qword ptr [rcx + 8], rax
	test	rcx, rcx
	je	.LBB16_19
# %bb.17:
	cmp	rax, 1
	jne	.LBB16_19
# %bb.18:
	mov	rax, qword ptr [rcx]
	mov	edx, 1
	call	qword ptr [rax]
.LBB16_19:
	mov	rax, rsi
	add	rsp, 80
	pop	rbx
	pop	rdi
	pop	rsi
	pop	r14
	pop	rbp
	ret
.LBB16_20:
	mov	rdi, qword ptr [r14 + 16]
	test	rdi, rdi
	je	.LBB16_21
# %bb.22:
	mov	edx, dword ptr [rdi]
	jmp	.LBB16_23
.LBB16_21:
	xor	edx, edx
.LBB16_23:
	mov	rax, qword ptr [rsi + 16]
	test	rax, rax
	je	.LBB16_24
# %bb.25:
	mov	eax, dword ptr [rax + 4]
	cmp	rax, rdx
	jb	.LBB16_27
	jmp	.LBB16_29
.LBB16_24:
	xor	eax, eax
	cmp	rax, rdx
	jae	.LBB16_29
.LBB16_27:
.Ltmp30:
	mov	rcx, rsi
	call	"?reserve_impl@array@json@boost@@AEAAX_K@Z"
.Ltmp31:
# %bb.28:
	mov	rdi, qword ptr [r14 + 16]
	mov	rsi, qword ptr [rbp - 16] # 8-byte Reload
.LBB16_29:
	test	rdi, rdi
	je	.LBB16_15
# %bb.30:
	mov	eax, dword ptr [rdi]
	test	rax, rax
	je	.LBB16_15
# %bb.31:
	add	rdi, 8
	lea	rax, [rax + 2*rax]
	lea	rbx, [rdi + 8*rax]
	lea	r14, [rbp - 40]
	jmp	.LBB16_32
	.p2align	4, 0x90
.LBB16_40:                              #   in Loop: Header=BB16_32 Depth=1
	add	rdi, 24
	cmp	rdi, rbx
	je	.LBB16_15
.LBB16_32:                              # =>This Inner Loop Header: Depth=1
	mov	rcx, qword ptr [rsi + 16]
	lea	rax, [rcx + 8]
	test	rcx, rcx
	cmove	rax, rcx
	je	.LBB16_33
# %bb.34:                               #   in Loop: Header=BB16_32 Depth=1
	mov	ecx, dword ptr [rcx]
	jmp	.LBB16_35
	.p2align	4, 0x90
.LBB16_33:                              #   in Loop: Header=BB16_32 Depth=1
	xor	ecx, ecx
.LBB16_35:                              #   in Loop: Header=BB16_32 Depth=1
	lea	rcx, [rcx + 2*rcx]
	lea	rcx, [rax + 8*rcx]
	mov	rax, qword ptr [rsi]
	mov	qword ptr [rbp - 40], rax
	test	al, 1
	je	.LBB16_37
# %bb.36:                               #   in Loop: Header=BB16_32 Depth=1
	and	rax, -4
	lock		add	qword ptr [rax + 8], 1
.LBB16_37:                              #   in Loop: Header=BB16_32 Depth=1
.Ltmp32:
	mov	rdx, rdi
	mov	r8, r14
	call	"??0value@json@boost@@QEAA@AEBV012@Vstorage_ptr@12@@Z"
.Ltmp33:
# %bb.38:                               #   in Loop: Header=BB16_32 Depth=1
	mov	rsi, qword ptr [rbp - 16] # 8-byte Reload
	mov	rax, qword ptr [rsi + 16]
	test	rax, rax
	je	.LBB16_40
# %bb.39:                               #   in Loop: Header=BB16_32 Depth=1
	add	dword ptr [rax], 1
	jmp	.LBB16_40
.LBB16_3:
	lea	rcx, [rip + "?$TSS0@?1??get_default@storage_ptr@json@boost@@CAPEAVmemory_resource@pmr@container@3@XZ@4HA"]
	call	_Init_thread_header
	cmp	dword ptr [rip + "?$TSS0@?1??get_default@storage_ptr@json@boost@@CAPEAVmemory_resource@pmr@container@3@XZ@4HA"], -1
	jne	.LBB16_5
# %bb.4:
	lea	rcx, [rip + "??__Fimpl@?1??get_default@storage_ptr@json@boost@@CAPEAVmemory_resource@pmr@container@4@XZ@YAXXZ"]
	call	atexit
	lea	rcx, [rip + "?$TSS0@?1??get_default@storage_ptr@json@boost@@CAPEAVmemory_resource@pmr@container@3@XZ@4HA"]
	call	_Init_thread_footer
.LBB16_5:
	mov	rsi, qword ptr [rbp - 16] # 8-byte Reload
	jmp	.LBB16_6
.LBB16_9:
	lea	rcx, [rip + "?$TSS0@?1??get_default@storage_ptr@json@boost@@CAPEAVmemory_resource@pmr@container@3@XZ@4HA"]
	call	_Init_thread_header
	cmp	dword ptr [rip + "?$TSS0@?1??get_default@storage_ptr@json@boost@@CAPEAVmemory_resource@pmr@container@3@XZ@4HA"], -1
	jne	.LBB16_11
# %bb.10:
	lea	rcx, [rip + "??__Fimpl@?1??get_default@storage_ptr@json@boost@@CAPEAVmemory_resource@pmr@container@4@XZ@YAXXZ"]
	call	atexit
	lea	rcx, [rip + "?$TSS0@?1??get_default@storage_ptr@json@boost@@CAPEAVmemory_resource@pmr@container@3@XZ@4HA"]
	call	_Init_thread_footer
.LBB16_11:
	mov	rsi, qword ptr [rbp - 16] # 8-byte Reload
	jmp	.LBB16_12
	.seh_handlerdata
	.long	("$cppxdata$??0array@json@boost@@QEAA@$$QEAV012@Vstorage_ptr@12@@Z")@IMGREL
	.section	.text,"xr",one_only,"??0array@json@boost@@QEAA@$$QEAV012@Vstorage_ptr@12@@Z"
	.seh_endproc
	.def	 "?dtor$41@?0???0array@json@boost@@QEAA@$$QEAV012@Vstorage_ptr@12@@Z@4HA";
	.scl	3;
	.type	32;
	.endef
	.p2align	4, 0x90
"?dtor$41@?0???0array@json@boost@@QEAA@$$QEAV012@Vstorage_ptr@12@@Z@4HA":
.seh_proc "?dtor$41@?0???0array@json@boost@@QEAA@$$QEAV012@Vstorage_ptr@12@@Z@4HA"
.LBB16_41:
	mov	qword ptr [rsp + 16], rdx
	push	rbp
	.seh_pushreg rbp
	push	r14
	.seh_pushreg r14
	push	rsi
	.seh_pushreg rsi
	push	rdi
	.seh_pushreg rdi
	push	rbx
	.seh_pushreg rbx
	sub	rsp, 32
	.seh_stackalloc 32
	lea	rbp, [rdx + 80]
	.seh_endprologue
	mov	rcx, qword ptr [rbp - 24] # 8-byte Reload
	mov	rsi, qword ptr [rbp - 16] # 8-byte Reload
	mov	rdx, rsi
	call	"?destroy@array_impl@detail@json@boost@@QEAAXAEBVstorage_ptr@34@@Z"
	mov	rcx, qword ptr [rsi]
	test	cl, 1
	je	.LBB16_45
# %bb.42:
	and	rcx, -4
	mov	rax, -1
	lock		xadd	qword ptr [rcx + 8], rax
	test	rcx, rcx
	je	.LBB16_45
# %bb.43:
	cmp	rax, 1
	jne	.LBB16_45
# %bb.44:
	mov	rax, qword ptr [rcx]
	mov	edx, 1
	call	qword ptr [rax]
.LBB16_45:
	mov	rax, qword ptr [rbp - 32] # 8-byte Reload
	mov	rcx, qword ptr [rax]
	test	cl, 1
	je	.LBB16_49
# %bb.46:
	and	rcx, -4
	mov	rax, -1
	lock		xadd	qword ptr [rcx + 8], rax
	test	rcx, rcx
	je	.LBB16_49
# %bb.47:
	cmp	rax, 1
	jne	.LBB16_49
# %bb.48:
	mov	rax, qword ptr [rcx]
	mov	edx, 1
	call	qword ptr [rax]
.LBB16_49:
	nop
	add	rsp, 32
	pop	rbx
	pop	rdi
	pop	rsi
	pop	r14
	pop	rbp
	ret                             # CLEANUPRET
.Lfunc_end8:
	.seh_handlerdata
	.section	.text,"xr",one_only,"??0array@json@boost@@QEAA@$$QEAV012@Vstorage_ptr@12@@Z"
	.seh_endproc
	.section	.xdata,"dr",associative,"??0array@json@boost@@QEAA@$$QEAV012@Vstorage_ptr@12@@Z"
	.p2align	2
"$cppxdata$??0array@json@boost@@QEAA@$$QEAV012@Vstorage_ptr@12@@Z":
	.long	429065506               # MagicNumber
	.long	1                       # MaxState
	.long	("$stateUnwindMap$??0array@json@boost@@QEAA@$$QEAV012@Vstorage_ptr@12@@Z")@IMGREL # UnwindMap
	.long	0                       # NumTryBlocks
	.long	0                       # TryBlockMap
	.long	3                       # IPMapEntries
	.long	("$ip2state$??0array@json@boost@@QEAA@$$QEAV012@Vstorage_ptr@12@@Z")@IMGREL # IPToStateXData
	.long	72                      # UnwindHelp
	.long	0                       # ESTypeList
	.long	1                       # EHFlags
"$stateUnwindMap$??0array@json@boost@@QEAA@$$QEAV012@Vstorage_ptr@12@@Z":
	.long	-1                      # ToState
	.long	"?dtor$41@?0???0array@json@boost@@QEAA@$$QEAV012@Vstorage_ptr@12@@Z@4HA"@IMGREL # Action
"$ip2state$??0array@json@boost@@QEAA@$$QEAV012@Vstorage_ptr@12@@Z":
	.long	.Lfunc_begin8@IMGREL    # IP
	.long	-1                      # ToState
	.long	.Ltmp30@IMGREL+1        # IP
	.long	0                       # ToState
	.long	.Ltmp33@IMGREL+1        # IP
	.long	-1                      # ToState
	.section	.text,"xr",one_only,"??0array@json@boost@@QEAA@$$QEAV012@Vstorage_ptr@12@@Z"
                                        # -- End function
	.def	 "??0array@json@boost@@QEAA@V?$initializer_list@Vvalue_ref@json@boost@@@std@@Vstorage_ptr@12@@Z";
	.scl	2;
	.type	32;
	.endef
	.section	.text,"xr",one_only,"??0array@json@boost@@QEAA@V?$initializer_list@Vvalue_ref@json@boost@@@std@@Vstorage_ptr@12@@Z"
	.globl	"??0array@json@boost@@QEAA@V?$initializer_list@Vvalue_ref@json@boost@@@std@@Vstorage_ptr@12@@Z" # -- Begin function ??0array@json@boost@@QEAA@V?$initializer_list@Vvalue_ref@json@boost@@@std@@Vstorage_ptr@12@@Z
	.p2align	4, 0x90
"??0array@json@boost@@QEAA@V?$initializer_list@Vvalue_ref@json@boost@@@std@@Vstorage_ptr@12@@Z": # @"??0array@json@boost@@QEAA@V?$initializer_list@Vvalue_ref@json@boost@@@std@@Vstorage_ptr@12@@Z"
.Lfunc_begin9:
.seh_proc "??0array@json@boost@@QEAA@V?$initializer_list@Vvalue_ref@json@boost@@@std@@Vstorage_ptr@12@@Z"
	.seh_handler __CxxFrameHandler3, @unwind, @except
# %bb.0:
	push	rbp
	.seh_pushreg rbp
	push	r15
	.seh_pushreg r15
	push	r14
	.seh_pushreg r14
	push	rsi
	.seh_pushreg rsi
	push	rdi
	.seh_pushreg rdi
	push	rbx
	.seh_pushreg rbx
	sub	rsp, 88
	.seh_stackalloc 88
	lea	rbp, [rsp + 80]
	.seh_setframe rbp, 80
	.seh_endprologue
	mov	qword ptr [rbp], -2
	mov	r14, rdx
	mov	rbx, rcx
	mov	rax, qword ptr [r8]
	mov	qword ptr [rbp - 24], r8 # 8-byte Spill
	mov	qword ptr [r8], 0
	mov	qword ptr [rcx], rax
	mov	byte ptr [rcx + 8], 0
	lea	rax, [rcx + 16]
	mov	qword ptr [rbp - 16], rax # 8-byte Spill
	mov	qword ptr [rcx + 16], 0
	mov	rdi, qword ptr [rdx]
	mov	rsi, qword ptr [rdx + 8]
	mov	rax, rsi
	sub	rax, rdi
	mov	qword ptr [rbp - 8], rcx # 8-byte Spill
	je	.LBB17_1
# %bb.2:
	sar	rax, 3
	movabs	rdx, -3689348814741910323
	imul	rdx, rax
.Ltmp34:
	mov	rcx, rbx
	call	"?reserve_impl@array@json@boost@@AEAAX_K@Z"
.Ltmp35:
# %bb.3:
	mov	rdi, qword ptr [r14]
	mov	rsi, qword ptr [r14 + 8]
	mov	rbx, qword ptr [rbp - 8] # 8-byte Reload
	mov	rax, qword ptr [rbx + 16]
	jmp	.LBB17_4
.LBB17_1:
	xor	eax, eax
.LBB17_4:
	lea	rcx, [rax + 8]
	test	rax, rax
	cmove	rcx, rax
	cmp	rdi, rsi
	je	.LBB17_11
# %bb.5:
	lea	r15, [rbp - 48]
	mov	qword ptr [rbp - 40], rcx # 8-byte Spill
	mov	rdx, rcx
	.p2align	4, 0x90
.LBB17_6:                               # =>This Inner Loop Header: Depth=1
	mov	rax, qword ptr [rbx]
	mov	qword ptr [rbp - 48], rax
	test	al, 1
	je	.LBB17_8
# %bb.7:                                #   in Loop: Header=BB17_6 Depth=1
	and	rax, -4
	lock		add	qword ptr [rax + 8], 1
.LBB17_8:                               #   in Loop: Header=BB17_6 Depth=1
.Ltmp36:
	mov	rcx, rdi
	mov	r8, r15
	mov	qword ptr [rbp - 32], rdx # 8-byte Spill
	call	"?make_value@value_ref@json@boost@@AEBA?AVvalue@23@Vstorage_ptr@23@@Z"
.Ltmp37:
# %bb.9:                                #   in Loop: Header=BB17_6 Depth=1
	mov	rdx, qword ptr [rbp - 32] # 8-byte Reload
	add	rdx, 24
	add	rdi, 40
	cmp	rsi, rdi
	mov	rbx, qword ptr [rbp - 8] # 8-byte Reload
	jne	.LBB17_6
# %bb.10:
	mov	rax, qword ptr [rbp - 16] # 8-byte Reload
	mov	rax, qword ptr [rax]
.LBB17_11:
	test	rax, rax
	je	.LBB17_13
# %bb.12:
	mov	rcx, qword ptr [r14 + 8]
	sub	rcx, qword ptr [r14]
	shr	rcx, 3
	imul	ecx, ecx, -858993459
	mov	dword ptr [rax], ecx
.LBB17_13:
	mov	rax, qword ptr [rbp - 24] # 8-byte Reload
	mov	rcx, qword ptr [rax]
	test	cl, 1
	je	.LBB17_17
# %bb.14:
	and	rcx, -4
	mov	rax, -1
	lock		xadd	qword ptr [rcx + 8], rax
	test	rcx, rcx
	je	.LBB17_17
# %bb.15:
	cmp	rax, 1
	jne	.LBB17_17
# %bb.16:
	mov	rax, qword ptr [rcx]
	mov	edx, 1
	call	qword ptr [rax]
.LBB17_17:
	mov	rax, rbx
	add	rsp, 88
	pop	rbx
	pop	rdi
	pop	rsi
	pop	r14
	pop	r15
	pop	rbp
	ret
	.seh_handlerdata
	.long	("$cppxdata$??0array@json@boost@@QEAA@V?$initializer_list@Vvalue_ref@json@boost@@@std@@Vstorage_ptr@12@@Z")@IMGREL
	.section	.text,"xr",one_only,"??0array@json@boost@@QEAA@V?$initializer_list@Vvalue_ref@json@boost@@@std@@Vstorage_ptr@12@@Z"
	.seh_endproc
	.def	 "?dtor$18@?0???0array@json@boost@@QEAA@V?$initializer_list@Vvalue_ref@json@boost@@@std@@Vstorage_ptr@12@@Z@4HA";
	.scl	3;
	.type	32;
	.endef
	.p2align	4, 0x90
"?dtor$18@?0???0array@json@boost@@QEAA@V?$initializer_list@Vvalue_ref@json@boost@@@std@@Vstorage_ptr@12@@Z@4HA":
.seh_proc "?dtor$18@?0???0array@json@boost@@QEAA@V?$initializer_list@Vvalue_ref@json@boost@@@std@@Vstorage_ptr@12@@Z@4HA"
.LBB17_18:
	mov	qword ptr [rsp + 16], rdx
	push	rbp
	.seh_pushreg rbp
	push	r15
	.seh_pushreg r15
	push	r14
	.seh_pushreg r14
	push	rsi
	.seh_pushreg rsi
	push	rdi
	.seh_pushreg rdi
	push	rbx
	.seh_pushreg rbx
	sub	rsp, 40
	.seh_stackalloc 40
	lea	rbp, [rdx + 80]
	.seh_endprologue
	mov	rsi, qword ptr [rbp - 40] # 8-byte Reload
	mov	rdi, qword ptr [rbp - 32] # 8-byte Reload
	cmp	rdi, rsi
	jbe	.LBB17_21
.LBB17_19:                              # =>This Inner Loop Header: Depth=1
	add	rdi, -24
	mov	rcx, rdi
	call	"??1value@json@boost@@QEAA@XZ"
	cmp	rdi, rsi
	ja	.LBB17_19
.LBB17_21:
	add	rsp, 40
	pop	rbx
	pop	rdi
	pop	rsi
	pop	r14
	pop	r15
	pop	rbp
	ret                             # CLEANUPRET
	.seh_handlerdata
	.section	.text,"xr",one_only,"??0array@json@boost@@QEAA@V?$initializer_list@Vvalue_ref@json@boost@@@std@@Vstorage_ptr@12@@Z"
	.seh_endproc
	.def	 "?dtor$22@?0???0array@json@boost@@QEAA@V?$initializer_list@Vvalue_ref@json@boost@@@std@@Vstorage_ptr@12@@Z@4HA";
	.scl	3;
	.type	32;
	.endef
	.p2align	4, 0x90
"?dtor$22@?0???0array@json@boost@@QEAA@V?$initializer_list@Vvalue_ref@json@boost@@@std@@Vstorage_ptr@12@@Z@4HA":
.seh_proc "?dtor$22@?0???0array@json@boost@@QEAA@V?$initializer_list@Vvalue_ref@json@boost@@@std@@Vstorage_ptr@12@@Z@4HA"
.LBB17_22:
	mov	qword ptr [rsp + 16], rdx
	push	rbp
	.seh_pushreg rbp
	push	r15
	.seh_pushreg r15
	push	r14
	.seh_pushreg r14
	push	rsi
	.seh_pushreg rsi
	push	rdi
	.seh_pushreg rdi
	push	rbx
	.seh_pushreg rbx
	sub	rsp, 40
	.seh_stackalloc 40
	lea	rbp, [rdx + 80]
	.seh_endprologue
	mov	rcx, qword ptr [rbp - 16] # 8-byte Reload
	mov	rsi, qword ptr [rbp - 8] # 8-byte Reload
	mov	rdx, rsi
	call	"?destroy@array_impl@detail@json@boost@@QEAAXAEBVstorage_ptr@34@@Z"
	mov	rcx, qword ptr [rsi]
	test	cl, 1
	je	.LBB17_26
# %bb.23:
	and	rcx, -4
	mov	rax, -1
	lock		xadd	qword ptr [rcx + 8], rax
	test	rcx, rcx
	je	.LBB17_26
# %bb.24:
	cmp	rax, 1
	jne	.LBB17_26
# %bb.25:
	mov	rax, qword ptr [rcx]
	mov	edx, 1
	call	qword ptr [rax]
.LBB17_26:
	mov	rax, qword ptr [rbp - 24] # 8-byte Reload
	mov	rcx, qword ptr [rax]
	test	cl, 1
	je	.LBB17_30
# %bb.27:
	and	rcx, -4
	mov	rax, -1
	lock		xadd	qword ptr [rcx + 8], rax
	test	rcx, rcx
	je	.LBB17_30
# %bb.28:
	cmp	rax, 1
	jne	.LBB17_30
# %bb.29:
	mov	rax, qword ptr [rcx]
	mov	edx, 1
	call	qword ptr [rax]
.LBB17_30:
	nop
	add	rsp, 40
	pop	rbx
	pop	rdi
	pop	rsi
	pop	r14
	pop	r15
	pop	rbp
	ret                             # CLEANUPRET
.Lfunc_end9:
	.seh_handlerdata
	.section	.text,"xr",one_only,"??0array@json@boost@@QEAA@V?$initializer_list@Vvalue_ref@json@boost@@@std@@Vstorage_ptr@12@@Z"
	.seh_endproc
	.section	.xdata,"dr",associative,"??0array@json@boost@@QEAA@V?$initializer_list@Vvalue_ref@json@boost@@@std@@Vstorage_ptr@12@@Z"
	.p2align	2
"$cppxdata$??0array@json@boost@@QEAA@V?$initializer_list@Vvalue_ref@json@boost@@@std@@Vstorage_ptr@12@@Z":
	.long	429065506               # MagicNumber
	.long	2                       # MaxState
	.long	("$stateUnwindMap$??0array@json@boost@@QEAA@V?$initializer_list@Vvalue_ref@json@boost@@@std@@Vstorage_ptr@12@@Z")@IMGREL # UnwindMap
	.long	0                       # NumTryBlocks
	.long	0                       # TryBlockMap
	.long	4                       # IPMapEntries
	.long	("$ip2state$??0array@json@boost@@QEAA@V?$initializer_list@Vvalue_ref@json@boost@@@std@@Vstorage_ptr@12@@Z")@IMGREL # IPToStateXData
	.long	80                      # UnwindHelp
	.long	0                       # ESTypeList
	.long	1                       # EHFlags
"$stateUnwindMap$??0array@json@boost@@QEAA@V?$initializer_list@Vvalue_ref@json@boost@@@std@@Vstorage_ptr@12@@Z":
	.long	-1                      # ToState
	.long	"?dtor$22@?0???0array@json@boost@@QEAA@V?$initializer_list@Vvalue_ref@json@boost@@@std@@Vstorage_ptr@12@@Z@4HA"@IMGREL # Action
	.long	0                       # ToState
	.long	"?dtor$18@?0???0array@json@boost@@QEAA@V?$initializer_list@Vvalue_ref@json@boost@@@std@@Vstorage_ptr@12@@Z@4HA"@IMGREL # Action
"$ip2state$??0array@json@boost@@QEAA@V?$initializer_list@Vvalue_ref@json@boost@@@std@@Vstorage_ptr@12@@Z":
	.long	.Lfunc_begin9@IMGREL    # IP
	.long	-1                      # ToState
	.long	.Ltmp34@IMGREL+1        # IP
	.long	0                       # ToState
	.long	.Ltmp36@IMGREL+1        # IP
	.long	1                       # ToState
	.long	.Ltmp37@IMGREL+1        # IP
	.long	-1                      # ToState
	.section	.text,"xr",one_only,"??0array@json@boost@@QEAA@V?$initializer_list@Vvalue_ref@json@boost@@@std@@Vstorage_ptr@12@@Z"
                                        # -- End function
	.def	 "?write_array@value_ref@json@boost@@CAXPEAVvalue@23@V?$initializer_list@Vvalue_ref@json@boost@@@std@@AEBVstorage_ptr@23@@Z";
	.scl	2;
	.type	32;
	.endef
	.section	.text,"xr",one_only,"?write_array@value_ref@json@boost@@CAXPEAVvalue@23@V?$initializer_list@Vvalue_ref@json@boost@@@std@@AEBVstorage_ptr@23@@Z"
	.globl	"?write_array@value_ref@json@boost@@CAXPEAVvalue@23@V?$initializer_list@Vvalue_ref@json@boost@@@std@@AEBVstorage_ptr@23@@Z" # -- Begin function ?write_array@value_ref@json@boost@@CAXPEAVvalue@23@V?$initializer_list@Vvalue_ref@json@boost@@@std@@AEBVstorage_ptr@23@@Z
	.p2align	4, 0x90
"?write_array@value_ref@json@boost@@CAXPEAVvalue@23@V?$initializer_list@Vvalue_ref@json@boost@@@std@@AEBVstorage_ptr@23@@Z": # @"?write_array@value_ref@json@boost@@CAXPEAVvalue@23@V?$initializer_list@Vvalue_ref@json@boost@@@std@@AEBVstorage_ptr@23@@Z"
.Lfunc_begin10:
.seh_proc "?write_array@value_ref@json@boost@@CAXPEAVvalue@23@V?$initializer_list@Vvalue_ref@json@boost@@@std@@AEBVstorage_ptr@23@@Z"
	.seh_handler __CxxFrameHandler3, @unwind, @except
# %bb.0:
	push	rbp
	.seh_pushreg rbp
	push	r14
	.seh_pushreg r14
	push	rsi
	.seh_pushreg rsi
	push	rdi
	.seh_pushreg rdi
	push	rbx
	.seh_pushreg rbx
	sub	rsp, 64
	.seh_stackalloc 64
	lea	rbp, [rsp + 64]
	.seh_setframe rbp, 64
	.seh_endprologue
	mov	qword ptr [rbp - 8], -2
	mov	qword ptr [rbp - 16], rcx # 8-byte Spill
	mov	rdi, qword ptr [rdx]
	mov	rbx, qword ptr [rdx + 8]
	cmp	rdi, rbx
	je	.LBB18_6
# %bb.1:
	mov	rsi, r8
	lea	r14, [rbp - 32]
	mov	rdx, qword ptr [rbp - 16] # 8-byte Reload
	.p2align	4, 0x90
.LBB18_2:                               # =>This Inner Loop Header: Depth=1
	mov	rax, qword ptr [rsi]
	mov	qword ptr [rbp - 32], rax
	test	al, 1
	je	.LBB18_4
# %bb.3:                                #   in Loop: Header=BB18_2 Depth=1
	and	rax, -4
	lock		add	qword ptr [rax + 8], 1
.LBB18_4:                               #   in Loop: Header=BB18_2 Depth=1
.Ltmp38:
	mov	rcx, rdi
	mov	r8, r14
	mov	qword ptr [rbp - 24], rdx # 8-byte Spill
	call	"?make_value@value_ref@json@boost@@AEBA?AVvalue@23@Vstorage_ptr@23@@Z"
.Ltmp39:
# %bb.5:                                #   in Loop: Header=BB18_2 Depth=1
	mov	rdx, qword ptr [rbp - 24] # 8-byte Reload
	add	rdx, 24
	add	rdi, 40
	cmp	rbx, rdi
	jne	.LBB18_2
.LBB18_6:
	add	rsp, 64
	pop	rbx
	pop	rdi
	pop	rsi
	pop	r14
	pop	rbp
	ret
	.seh_handlerdata
	.long	("$cppxdata$?write_array@value_ref@json@boost@@CAXPEAVvalue@23@V?$initializer_list@Vvalue_ref@json@boost@@@std@@AEBVstorage_ptr@23@@Z")@IMGREL
	.section	.text,"xr",one_only,"?write_array@value_ref@json@boost@@CAXPEAVvalue@23@V?$initializer_list@Vvalue_ref@json@boost@@@std@@AEBVstorage_ptr@23@@Z"
	.seh_endproc
	.def	 "?dtor$7@?0??write_array@value_ref@json@boost@@CAXPEAVvalue@23@V?$initializer_list@Vvalue_ref@json@boost@@@std@@AEBVstorage_ptr@23@@Z@4HA";
	.scl	3;
	.type	32;
	.endef
	.p2align	4, 0x90
"?dtor$7@?0??write_array@value_ref@json@boost@@CAXPEAVvalue@23@V?$initializer_list@Vvalue_ref@json@boost@@@std@@AEBVstorage_ptr@23@@Z@4HA":
.seh_proc "?dtor$7@?0??write_array@value_ref@json@boost@@CAXPEAVvalue@23@V?$initializer_list@Vvalue_ref@json@boost@@@std@@AEBVstorage_ptr@23@@Z@4HA"
.LBB18_7:
	mov	qword ptr [rsp + 16], rdx
	push	rbp
	.seh_pushreg rbp
	push	r14
	.seh_pushreg r14
	push	rsi
	.seh_pushreg rsi
	push	rdi
	.seh_pushreg rdi
	push	rbx
	.seh_pushreg rbx
	sub	rsp, 32
	.seh_stackalloc 32
	lea	rbp, [rdx + 64]
	.seh_endprologue
	mov	rsi, qword ptr [rbp - 16] # 8-byte Reload
	mov	rdi, qword ptr [rbp - 24] # 8-byte Reload
	cmp	rdi, rsi
	jbe	.LBB18_10
.LBB18_8:                               # =>This Inner Loop Header: Depth=1
	add	rdi, -24
	mov	rcx, rdi
	call	"??1value@json@boost@@QEAA@XZ"
	cmp	rdi, rsi
	ja	.LBB18_8
.LBB18_10:
	add	rsp, 32
	pop	rbx
	pop	rdi
	pop	rsi
	pop	r14
	pop	rbp
	ret                             # CLEANUPRET
.Lfunc_end10:
	.seh_handlerdata
	.section	.text,"xr",one_only,"?write_array@value_ref@json@boost@@CAXPEAVvalue@23@V?$initializer_list@Vvalue_ref@json@boost@@@std@@AEBVstorage_ptr@23@@Z"
	.seh_endproc
	.section	.xdata,"dr",associative,"?write_array@value_ref@json@boost@@CAXPEAVvalue@23@V?$initializer_list@Vvalue_ref@json@boost@@@std@@AEBVstorage_ptr@23@@Z"
	.p2align	2
"$cppxdata$?write_array@value_ref@json@boost@@CAXPEAVvalue@23@V?$initializer_list@Vvalue_ref@json@boost@@@std@@AEBVstorage_ptr@23@@Z":
	.long	429065506               # MagicNumber
	.long	1                       # MaxState
	.long	("$stateUnwindMap$?write_array@value_ref@json@boost@@CAXPEAVvalue@23@V?$initializer_list@Vvalue_ref@json@boost@@@std@@AEBVstorage_ptr@23@@Z")@IMGREL # UnwindMap
	.long	0                       # NumTryBlocks
	.long	0                       # TryBlockMap
	.long	3                       # IPMapEntries
	.long	("$ip2state$?write_array@value_ref@json@boost@@CAXPEAVvalue@23@V?$initializer_list@Vvalue_ref@json@boost@@@std@@AEBVstorage_ptr@23@@Z")@IMGREL # IPToStateXData
	.long	56                      # UnwindHelp
	.long	0                       # ESTypeList
	.long	1                       # EHFlags
"$stateUnwindMap$?write_array@value_ref@json@boost@@CAXPEAVvalue@23@V?$initializer_list@Vvalue_ref@json@boost@@@std@@AEBVstorage_ptr@23@@Z":
	.long	-1                      # ToState
	.long	"?dtor$7@?0??write_array@value_ref@json@boost@@CAXPEAVvalue@23@V?$initializer_list@Vvalue_ref@json@boost@@@std@@AEBVstorage_ptr@23@@Z@4HA"@IMGREL # Action
"$ip2state$?write_array@value_ref@json@boost@@CAXPEAVvalue@23@V?$initializer_list@Vvalue_ref@json@boost@@@std@@AEBVstorage_ptr@23@@Z":
	.long	.Lfunc_begin10@IMGREL   # IP
	.long	-1                      # ToState
	.long	.Ltmp38@IMGREL+1        # IP
	.long	0                       # ToState
	.long	.Ltmp39@IMGREL+1        # IP
	.long	-1                      # ToState
	.section	.text,"xr",one_only,"?write_array@value_ref@json@boost@@CAXPEAVvalue@23@V?$initializer_list@Vvalue_ref@json@boost@@@std@@AEBVstorage_ptr@23@@Z"
                                        # -- End function
	.def	 "??4array@json@boost@@QEAAAEAV012@AEBV012@@Z";
	.scl	2;
	.type	32;
	.endef
	.section	.text,"xr",one_only,"??4array@json@boost@@QEAAAEAV012@AEBV012@@Z"
	.globl	"??4array@json@boost@@QEAAAEAV012@AEBV012@@Z" # -- Begin function ??4array@json@boost@@QEAAAEAV012@AEBV012@@Z
	.p2align	4, 0x90
"??4array@json@boost@@QEAAAEAV012@AEBV012@@Z": # @"??4array@json@boost@@QEAAAEAV012@AEBV012@@Z"
.Lfunc_begin11:
.seh_proc "??4array@json@boost@@QEAAAEAV012@AEBV012@@Z"
	.seh_handler __CxxFrameHandler3, @unwind, @except
# %bb.0:
	push	rbp
	.seh_pushreg rbp
	push	rsi
	.seh_pushreg rsi
	push	rdi
	.seh_pushreg rdi
	sub	rsp, 80
	.seh_stackalloc 80
	lea	rbp, [rsp + 80]
	.seh_setframe rbp, 80
	.seh_endprologue
	mov	qword ptr [rbp - 8], -2
	mov	rsi, rcx
	cmp	rcx, rdx
	je	.LBB19_23
# %bb.1:
	mov	rax, qword ptr [rsi]
	mov	qword ptr [rbp - 16], rax
	test	al, 1
	je	.LBB19_3
# %bb.2:
	and	rax, -4
	lock		add	qword ptr [rax + 8], 1
.LBB19_3:
	lea	rcx, [rbp - 40]
	lea	r8, [rbp - 16]
	call	"??0array@json@boost@@QEAA@AEBV012@Vstorage_ptr@12@@Z"
	mov	rax, qword ptr [rsi + 16]
	test	rax, rax
	je	.LBB19_18
# %bb.4:
	mov	rdi, qword ptr [rsi]
	mov	ecx, edi
	and	ecx, 3
	cmp	ecx, 2
	je	.LBB19_18
# %bb.5:
	mov	ecx, dword ptr [rax]
	test	rcx, rcx
	je	.LBB19_9
# %bb.6:
	lea	rcx, [rcx + 2*rcx]
	lea	rdi, [rax + 8*rcx]
	add	rdi, 8
	.p2align	4, 0x90
.LBB19_7:                               # =>This Inner Loop Header: Depth=1
	add	rdi, -24
	mov	rcx, rdi
	call	"??1value@json@boost@@QEAA@XZ"
	mov	rax, qword ptr [rsi + 16]
	lea	rcx, [rax + 8]
	test	rax, rax
	cmove	rcx, rax
	cmp	rdi, rcx
	jne	.LBB19_7
# %bb.8:
	mov	rdi, qword ptr [rsi]
.LBB19_9:
	test	rdi, rdi
	je	.LBB19_11
# %bb.10:
	and	rdi, -4
	jmp	.LBB19_14
.LBB19_11:
	mov	eax, dword ptr [rip + "?$TSS0@?1??get_default@storage_ptr@json@boost@@CAPEAVmemory_resource@pmr@container@3@XZ@4HA"]
	mov	ecx, dword ptr [rip + _tls_index]
	mov	rdx, qword ptr gs:[88]
	mov	rcx, qword ptr [rdx + 8*rcx]
	lea	rdi, [rip + "?impl@?1??get_default@storage_ptr@json@boost@@CAPEAVmemory_resource@pmr@container@4@XZ@4Vdefault_resource@detail@34@A"]
	cmp	eax, dword ptr [rcx + _Init_thread_epoch@SECREL32]
	jg	.LBB19_12
.LBB19_14:
	mov	rdx, qword ptr [rsi + 16]
	test	rdx, rdx
	je	.LBB19_15
# %bb.16:
	mov	eax, dword ptr [rdx + 4]
	lea	rax, [rax + 2*rax]
	lea	rax, [8*rax + 17]
	movabs	r8, 274877906936
	and	r8, rax
	jmp	.LBB19_17
.LBB19_15:
	mov	r8d, 16
.LBB19_17:
	mov	rax, qword ptr [rdi]
.Ltmp40:
	mov	r9d, 8
	mov	rcx, rdi
	call	qword ptr [rax + 16]
.Ltmp41:
.LBB19_18:
	mov	rcx, qword ptr [rsi]
	test	cl, 1
	je	.LBB19_22
# %bb.19:
	and	rcx, -4
	mov	rax, -1
	lock		xadd	qword ptr [rcx + 8], rax
	test	rcx, rcx
	je	.LBB19_22
# %bb.20:
	cmp	rax, 1
	jne	.LBB19_22
# %bb.21:
	mov	rax, qword ptr [rcx]
	mov	edx, 1
	call	qword ptr [rax]
.LBB19_22:
	mov	rax, qword ptr [rbp - 40]
	mov	qword ptr [rsi], rax
	mov	qword ptr [rbp - 40], 0
	mov	byte ptr [rsi + 8], 0
	mov	rax, qword ptr [rbp - 24]
	mov	qword ptr [rsi + 16], rax
.LBB19_23:
	mov	rax, rsi
	add	rsp, 80
	pop	rdi
	pop	rsi
	pop	rbp
	ret
.LBB19_12:
	lea	rcx, [rip + "?$TSS0@?1??get_default@storage_ptr@json@boost@@CAPEAVmemory_resource@pmr@container@3@XZ@4HA"]
	call	_Init_thread_header
	cmp	dword ptr [rip + "?$TSS0@?1??get_default@storage_ptr@json@boost@@CAPEAVmemory_resource@pmr@container@3@XZ@4HA"], -1
	jne	.LBB19_14
# %bb.13:
	lea	rcx, [rip + "??__Fimpl@?1??get_default@storage_ptr@json@boost@@CAPEAVmemory_resource@pmr@container@4@XZ@YAXXZ"]
	call	atexit
	lea	rcx, [rip + "?$TSS0@?1??get_default@storage_ptr@json@boost@@CAPEAVmemory_resource@pmr@container@3@XZ@4HA"]
	call	_Init_thread_footer
	jmp	.LBB19_14
	.seh_handlerdata
	.long	("$cppxdata$??4array@json@boost@@QEAAAEAV012@AEBV012@@Z")@IMGREL
	.section	.text,"xr",one_only,"??4array@json@boost@@QEAAAEAV012@AEBV012@@Z"
	.seh_endproc
	.def	 "?dtor$24@?0???4array@json@boost@@QEAAAEAV012@AEBV012@@Z@4HA";
	.scl	3;
	.type	32;
	.endef
	.p2align	4, 0x90
"?dtor$24@?0???4array@json@boost@@QEAAAEAV012@AEBV012@@Z@4HA":
.seh_proc "?dtor$24@?0???4array@json@boost@@QEAAAEAV012@AEBV012@@Z@4HA"
.LBB19_24:
	mov	qword ptr [rsp + 16], rdx
	push	rbp
	.seh_pushreg rbp
	push	rsi
	.seh_pushreg rsi
	push	rdi
	.seh_pushreg rdi
	sub	rsp, 32
	.seh_stackalloc 32
	lea	rbp, [rdx + 80]
	.seh_endprologue
	call	__std_terminate
	int3
.Lfunc_end11:
	.seh_handlerdata
	.section	.text,"xr",one_only,"??4array@json@boost@@QEAAAEAV012@AEBV012@@Z"
	.seh_endproc
	.section	.xdata,"dr",associative,"??4array@json@boost@@QEAAAEAV012@AEBV012@@Z"
	.p2align	2
"$cppxdata$??4array@json@boost@@QEAAAEAV012@AEBV012@@Z":
	.long	429065506               # MagicNumber
	.long	1                       # MaxState
	.long	("$stateUnwindMap$??4array@json@boost@@QEAAAEAV012@AEBV012@@Z")@IMGREL # UnwindMap
	.long	0                       # NumTryBlocks
	.long	0                       # TryBlockMap
	.long	3                       # IPMapEntries
	.long	("$ip2state$??4array@json@boost@@QEAAAEAV012@AEBV012@@Z")@IMGREL # IPToStateXData
	.long	72                      # UnwindHelp
	.long	0                       # ESTypeList
	.long	1                       # EHFlags
"$stateUnwindMap$??4array@json@boost@@QEAAAEAV012@AEBV012@@Z":
	.long	-1                      # ToState
	.long	"?dtor$24@?0???4array@json@boost@@QEAAAEAV012@AEBV012@@Z@4HA"@IMGREL # Action
"$ip2state$??4array@json@boost@@QEAAAEAV012@AEBV012@@Z":
	.long	.Lfunc_begin11@IMGREL   # IP
	.long	-1                      # ToState
	.long	.Ltmp40@IMGREL+1        # IP
	.long	0                       # ToState
	.long	.Ltmp41@IMGREL+1        # IP
	.long	-1                      # ToState
	.section	.text,"xr",one_only,"??4array@json@boost@@QEAAAEAV012@AEBV012@@Z"
                                        # -- End function
	.def	 "??4array@json@boost@@QEAAAEAV012@$$QEAV012@@Z";
	.scl	2;
	.type	32;
	.endef
	.section	.text,"xr",one_only,"??4array@json@boost@@QEAAAEAV012@$$QEAV012@@Z"
	.globl	"??4array@json@boost@@QEAAAEAV012@$$QEAV012@@Z" # -- Begin function ??4array@json@boost@@QEAAAEAV012@$$QEAV012@@Z
	.p2align	4, 0x90
"??4array@json@boost@@QEAAAEAV012@$$QEAV012@@Z": # @"??4array@json@boost@@QEAAAEAV012@$$QEAV012@@Z"
.Lfunc_begin12:
.seh_proc "??4array@json@boost@@QEAAAEAV012@$$QEAV012@@Z"
	.seh_handler __CxxFrameHandler3, @unwind, @except
# %bb.0:
	push	rbp
	.seh_pushreg rbp
	push	rsi
	.seh_pushreg rsi
	push	rdi
	.seh_pushreg rdi
	sub	rsp, 80
	.seh_stackalloc 80
	lea	rbp, [rsp + 80]
	.seh_setframe rbp, 80
	.seh_endprologue
	mov	qword ptr [rbp - 8], -2
	mov	rsi, rcx
	mov	rax, qword ptr [rcx]
	mov	qword ptr [rbp - 16], rax
	test	al, 1
	je	.LBB20_2
# %bb.1:
	and	rax, -4
	lock		add	qword ptr [rax + 8], 1
.LBB20_2:
	lea	rcx, [rbp - 40]
	lea	r8, [rbp - 16]
	call	"??0array@json@boost@@QEAA@$$QEAV012@Vstorage_ptr@12@@Z"
	mov	rax, qword ptr [rsi + 16]
	test	rax, rax
	je	.LBB20_17
# %bb.3:
	mov	rdi, qword ptr [rsi]
	mov	ecx, edi
	and	ecx, 3
	cmp	ecx, 2
	je	.LBB20_17
# %bb.4:
	mov	ecx, dword ptr [rax]
	test	rcx, rcx
	je	.LBB20_8
# %bb.5:
	lea	rcx, [rcx + 2*rcx]
	lea	rdi, [rax + 8*rcx]
	add	rdi, 8
	.p2align	4, 0x90
.LBB20_6:                               # =>This Inner Loop Header: Depth=1
	add	rdi, -24
	mov	rcx, rdi
	call	"??1value@json@boost@@QEAA@XZ"
	mov	rax, qword ptr [rsi + 16]
	lea	rcx, [rax + 8]
	test	rax, rax
	cmove	rcx, rax
	cmp	rdi, rcx
	jne	.LBB20_6
# %bb.7:
	mov	rdi, qword ptr [rsi]
.LBB20_8:
	test	rdi, rdi
	je	.LBB20_10
# %bb.9:
	and	rdi, -4
	jmp	.LBB20_13
.LBB20_10:
	mov	eax, dword ptr [rip + "?$TSS0@?1??get_default@storage_ptr@json@boost@@CAPEAVmemory_resource@pmr@container@3@XZ@4HA"]
	mov	ecx, dword ptr [rip + _tls_index]
	mov	rdx, qword ptr gs:[88]
	mov	rcx, qword ptr [rdx + 8*rcx]
	lea	rdi, [rip + "?impl@?1??get_default@storage_ptr@json@boost@@CAPEAVmemory_resource@pmr@container@4@XZ@4Vdefault_resource@detail@34@A"]
	cmp	eax, dword ptr [rcx + _Init_thread_epoch@SECREL32]
	jg	.LBB20_11
.LBB20_13:
	mov	rdx, qword ptr [rsi + 16]
	test	rdx, rdx
	je	.LBB20_14
# %bb.15:
	mov	eax, dword ptr [rdx + 4]
	lea	rax, [rax + 2*rax]
	lea	rax, [8*rax + 17]
	movabs	r8, 274877906936
	and	r8, rax
	jmp	.LBB20_16
.LBB20_14:
	mov	r8d, 16
.LBB20_16:
	mov	rax, qword ptr [rdi]
.Ltmp42:
	mov	r9d, 8
	mov	rcx, rdi
	call	qword ptr [rax + 16]
.Ltmp43:
.LBB20_17:
	mov	rcx, qword ptr [rsi]
	test	cl, 1
	je	.LBB20_21
# %bb.18:
	and	rcx, -4
	mov	rax, -1
	lock		xadd	qword ptr [rcx + 8], rax
	test	rcx, rcx
	je	.LBB20_21
# %bb.19:
	cmp	rax, 1
	jne	.LBB20_21
# %bb.20:
	mov	rax, qword ptr [rcx]
	mov	edx, 1
	call	qword ptr [rax]
.LBB20_21:
	mov	rax, qword ptr [rbp - 40]
	mov	qword ptr [rsi], rax
	mov	qword ptr [rbp - 40], 0
	mov	byte ptr [rsi + 8], 0
	mov	rax, qword ptr [rbp - 24]
	mov	qword ptr [rsi + 16], rax
	mov	rax, rsi
	add	rsp, 80
	pop	rdi
	pop	rsi
	pop	rbp
	ret
.LBB20_11:
	lea	rcx, [rip + "?$TSS0@?1??get_default@storage_ptr@json@boost@@CAPEAVmemory_resource@pmr@container@3@XZ@4HA"]
	call	_Init_thread_header
	cmp	dword ptr [rip + "?$TSS0@?1??get_default@storage_ptr@json@boost@@CAPEAVmemory_resource@pmr@container@3@XZ@4HA"], -1
	jne	.LBB20_13
# %bb.12:
	lea	rcx, [rip + "??__Fimpl@?1??get_default@storage_ptr@json@boost@@CAPEAVmemory_resource@pmr@container@4@XZ@YAXXZ"]
	call	atexit
	lea	rcx, [rip + "?$TSS0@?1??get_default@storage_ptr@json@boost@@CAPEAVmemory_resource@pmr@container@3@XZ@4HA"]
	call	_Init_thread_footer
	jmp	.LBB20_13
	.seh_handlerdata
	.long	("$cppxdata$??4array@json@boost@@QEAAAEAV012@$$QEAV012@@Z")@IMGREL
	.section	.text,"xr",one_only,"??4array@json@boost@@QEAAAEAV012@$$QEAV012@@Z"
	.seh_endproc
	.def	 "?dtor$22@?0???4array@json@boost@@QEAAAEAV012@$$QEAV012@@Z@4HA";
	.scl	3;
	.type	32;
	.endef
	.p2align	4, 0x90
"?dtor$22@?0???4array@json@boost@@QEAAAEAV012@$$QEAV012@@Z@4HA":
.seh_proc "?dtor$22@?0???4array@json@boost@@QEAAAEAV012@$$QEAV012@@Z@4HA"
.LBB20_22:
	mov	qword ptr [rsp + 16], rdx
	push	rbp
	.seh_pushreg rbp
	push	rsi
	.seh_pushreg rsi
	push	rdi
	.seh_pushreg rdi
	sub	rsp, 32
	.seh_stackalloc 32
	lea	rbp, [rdx + 80]
	.seh_endprologue
	call	__std_terminate
	int3
.Lfunc_end12:
	.seh_handlerdata
	.section	.text,"xr",one_only,"??4array@json@boost@@QEAAAEAV012@$$QEAV012@@Z"
	.seh_endproc
	.section	.xdata,"dr",associative,"??4array@json@boost@@QEAAAEAV012@$$QEAV012@@Z"
	.p2align	2
"$cppxdata$??4array@json@boost@@QEAAAEAV012@$$QEAV012@@Z":
	.long	429065506               # MagicNumber
	.long	1                       # MaxState
	.long	("$stateUnwindMap$??4array@json@boost@@QEAAAEAV012@$$QEAV012@@Z")@IMGREL # UnwindMap
	.long	0                       # NumTryBlocks
	.long	0                       # TryBlockMap
	.long	3                       # IPMapEntries
	.long	("$ip2state$??4array@json@boost@@QEAAAEAV012@$$QEAV012@@Z")@IMGREL # IPToStateXData
	.long	72                      # UnwindHelp
	.long	0                       # ESTypeList
	.long	1                       # EHFlags
"$stateUnwindMap$??4array@json@boost@@QEAAAEAV012@$$QEAV012@@Z":
	.long	-1                      # ToState
	.long	"?dtor$22@?0???4array@json@boost@@QEAAAEAV012@$$QEAV012@@Z@4HA"@IMGREL # Action
"$ip2state$??4array@json@boost@@QEAAAEAV012@$$QEAV012@@Z":
	.long	.Lfunc_begin12@IMGREL   # IP
	.long	-1                      # ToState
	.long	.Ltmp42@IMGREL+1        # IP
	.long	0                       # ToState
	.long	.Ltmp43@IMGREL+1        # IP
	.long	-1                      # ToState
	.section	.text,"xr",one_only,"??4array@json@boost@@QEAAAEAV012@$$QEAV012@@Z"
                                        # -- End function
	.def	 "??4array@json@boost@@QEAAAEAV012@V?$initializer_list@Vvalue_ref@json@boost@@@std@@@Z";
	.scl	2;
	.type	32;
	.endef
	.section	.text,"xr",one_only,"??4array@json@boost@@QEAAAEAV012@V?$initializer_list@Vvalue_ref@json@boost@@@std@@@Z"
	.globl	"??4array@json@boost@@QEAAAEAV012@V?$initializer_list@Vvalue_ref@json@boost@@@std@@@Z" # -- Begin function ??4array@json@boost@@QEAAAEAV012@V?$initializer_list@Vvalue_ref@json@boost@@@std@@@Z
	.p2align	4, 0x90
"??4array@json@boost@@QEAAAEAV012@V?$initializer_list@Vvalue_ref@json@boost@@@std@@@Z": # @"??4array@json@boost@@QEAAAEAV012@V?$initializer_list@Vvalue_ref@json@boost@@@std@@@Z"
.Lfunc_begin13:
.seh_proc "??4array@json@boost@@QEAAAEAV012@V?$initializer_list@Vvalue_ref@json@boost@@@std@@@Z"
	.seh_handler __CxxFrameHandler3, @unwind, @except
# %bb.0:
	push	rbp
	.seh_pushreg rbp
	push	rsi
	.seh_pushreg rsi
	push	rdi
	.seh_pushreg rdi
	sub	rsp, 96
	.seh_stackalloc 96
	lea	rbp, [rsp + 96]
	.seh_setframe rbp, 96
	.seh_endprologue
	mov	qword ptr [rbp - 8], -2
	mov	rsi, rcx
	mov	rax, qword ptr [rcx]
	mov	qword ptr [rbp - 16], rax
	test	al, 1
	je	.LBB21_2
# %bb.1:
	and	rax, -4
	lock		add	qword ptr [rax + 8], 1
.LBB21_2:
	movups	xmm0, xmmword ptr [rdx]
	movaps	xmmword ptr [rbp - 64], xmm0
	lea	rcx, [rbp - 40]
	lea	rdx, [rbp - 64]
	lea	r8, [rbp - 16]
	call	"??0array@json@boost@@QEAA@V?$initializer_list@Vvalue_ref@json@boost@@@std@@Vstorage_ptr@12@@Z"
	mov	rax, qword ptr [rsi + 16]
	test	rax, rax
	je	.LBB21_17
# %bb.3:
	mov	rdi, qword ptr [rsi]
	mov	ecx, edi
	and	ecx, 3
	cmp	ecx, 2
	je	.LBB21_17
# %bb.4:
	mov	ecx, dword ptr [rax]
	test	rcx, rcx
	je	.LBB21_8
# %bb.5:
	lea	rcx, [rcx + 2*rcx]
	lea	rdi, [rax + 8*rcx]
	add	rdi, 8
	.p2align	4, 0x90
.LBB21_6:                               # =>This Inner Loop Header: Depth=1
	add	rdi, -24
	mov	rcx, rdi
	call	"??1value@json@boost@@QEAA@XZ"
	mov	rax, qword ptr [rsi + 16]
	lea	rcx, [rax + 8]
	test	rax, rax
	cmove	rcx, rax
	cmp	rdi, rcx
	jne	.LBB21_6
# %bb.7:
	mov	rdi, qword ptr [rsi]
.LBB21_8:
	test	rdi, rdi
	je	.LBB21_10
# %bb.9:
	and	rdi, -4
	jmp	.LBB21_13
.LBB21_10:
	mov	eax, dword ptr [rip + "?$TSS0@?1??get_default@storage_ptr@json@boost@@CAPEAVmemory_resource@pmr@container@3@XZ@4HA"]
	mov	ecx, dword ptr [rip + _tls_index]
	mov	rdx, qword ptr gs:[88]
	mov	rcx, qword ptr [rdx + 8*rcx]
	lea	rdi, [rip + "?impl@?1??get_default@storage_ptr@json@boost@@CAPEAVmemory_resource@pmr@container@4@XZ@4Vdefault_resource@detail@34@A"]
	cmp	eax, dword ptr [rcx + _Init_thread_epoch@SECREL32]
	jg	.LBB21_11
.LBB21_13:
	mov	rdx, qword ptr [rsi + 16]
	test	rdx, rdx
	je	.LBB21_14
# %bb.15:
	mov	eax, dword ptr [rdx + 4]
	lea	rax, [rax + 2*rax]
	lea	rax, [8*rax + 17]
	movabs	r8, 274877906936
	and	r8, rax
	jmp	.LBB21_16
.LBB21_14:
	mov	r8d, 16
.LBB21_16:
	mov	rax, qword ptr [rdi]
.Ltmp44:
	mov	r9d, 8
	mov	rcx, rdi
	call	qword ptr [rax + 16]
.Ltmp45:
.LBB21_17:
	mov	rcx, qword ptr [rsi]
	test	cl, 1
	je	.LBB21_21
# %bb.18:
	and	rcx, -4
	mov	rax, -1
	lock		xadd	qword ptr [rcx + 8], rax
	test	rcx, rcx
	je	.LBB21_21
# %bb.19:
	cmp	rax, 1
	jne	.LBB21_21
# %bb.20:
	mov	rax, qword ptr [rcx]
	mov	edx, 1
	call	qword ptr [rax]
.LBB21_21:
	mov	rax, qword ptr [rbp - 40]
	mov	qword ptr [rsi], rax
	mov	qword ptr [rbp - 40], 0
	mov	byte ptr [rsi + 8], 0
	mov	rax, qword ptr [rbp - 24]
	mov	qword ptr [rsi + 16], rax
	mov	rax, rsi
	add	rsp, 96
	pop	rdi
	pop	rsi
	pop	rbp
	ret
.LBB21_11:
	lea	rcx, [rip + "?$TSS0@?1??get_default@storage_ptr@json@boost@@CAPEAVmemory_resource@pmr@container@3@XZ@4HA"]
	call	_Init_thread_header
	cmp	dword ptr [rip + "?$TSS0@?1??get_default@storage_ptr@json@boost@@CAPEAVmemory_resource@pmr@container@3@XZ@4HA"], -1
	jne	.LBB21_13
# %bb.12:
	lea	rcx, [rip + "??__Fimpl@?1??get_default@storage_ptr@json@boost@@CAPEAVmemory_resource@pmr@container@4@XZ@YAXXZ"]
	call	atexit
	lea	rcx, [rip + "?$TSS0@?1??get_default@storage_ptr@json@boost@@CAPEAVmemory_resource@pmr@container@3@XZ@4HA"]
	call	_Init_thread_footer
	jmp	.LBB21_13
	.seh_handlerdata
	.long	("$cppxdata$??4array@json@boost@@QEAAAEAV012@V?$initializer_list@Vvalue_ref@json@boost@@@std@@@Z")@IMGREL
	.section	.text,"xr",one_only,"??4array@json@boost@@QEAAAEAV012@V?$initializer_list@Vvalue_ref@json@boost@@@std@@@Z"
	.seh_endproc
	.def	 "?dtor$22@?0???4array@json@boost@@QEAAAEAV012@V?$initializer_list@Vvalue_ref@json@boost@@@std@@@Z@4HA";
	.scl	3;
	.type	32;
	.endef
	.p2align	4, 0x90
"?dtor$22@?0???4array@json@boost@@QEAAAEAV012@V?$initializer_list@Vvalue_ref@json@boost@@@std@@@Z@4HA":
.seh_proc "?dtor$22@?0???4array@json@boost@@QEAAAEAV012@V?$initializer_list@Vvalue_ref@json@boost@@@std@@@Z@4HA"
.LBB21_22:
	mov	qword ptr [rsp + 16], rdx
	push	rbp
	.seh_pushreg rbp
	push	rsi
	.seh_pushreg rsi
	push	rdi
	.seh_pushreg rdi
	sub	rsp, 32
	.seh_stackalloc 32
	lea	rbp, [rdx + 96]
	.seh_endprologue
	call	__std_terminate
	int3
.Lfunc_end13:
	.seh_handlerdata
	.section	.text,"xr",one_only,"??4array@json@boost@@QEAAAEAV012@V?$initializer_list@Vvalue_ref@json@boost@@@std@@@Z"
	.seh_endproc
	.section	.xdata,"dr",associative,"??4array@json@boost@@QEAAAEAV012@V?$initializer_list@Vvalue_ref@json@boost@@@std@@@Z"
	.p2align	2
"$cppxdata$??4array@json@boost@@QEAAAEAV012@V?$initializer_list@Vvalue_ref@json@boost@@@std@@@Z":
	.long	429065506               # MagicNumber
	.long	1                       # MaxState
	.long	("$stateUnwindMap$??4array@json@boost@@QEAAAEAV012@V?$initializer_list@Vvalue_ref@json@boost@@@std@@@Z")@IMGREL # UnwindMap
	.long	0                       # NumTryBlocks
	.long	0                       # TryBlockMap
	.long	3                       # IPMapEntries
	.long	("$ip2state$??4array@json@boost@@QEAAAEAV012@V?$initializer_list@Vvalue_ref@json@boost@@@std@@@Z")@IMGREL # IPToStateXData
	.long	88                      # UnwindHelp
	.long	0                       # ESTypeList
	.long	1                       # EHFlags
"$stateUnwindMap$??4array@json@boost@@QEAAAEAV012@V?$initializer_list@Vvalue_ref@json@boost@@@std@@@Z":
	.long	-1                      # ToState
	.long	"?dtor$22@?0???4array@json@boost@@QEAAAEAV012@V?$initializer_list@Vvalue_ref@json@boost@@@std@@@Z@4HA"@IMGREL # Action
"$ip2state$??4array@json@boost@@QEAAAEAV012@V?$initializer_list@Vvalue_ref@json@boost@@@std@@@Z":
	.long	.Lfunc_begin13@IMGREL   # IP
	.long	-1                      # ToState
	.long	.Ltmp44@IMGREL+1        # IP
	.long	0                       # ToState
	.long	.Ltmp45@IMGREL+1        # IP
	.long	-1                      # ToState
	.section	.text,"xr",one_only,"??4array@json@boost@@QEAAAEAV012@V?$initializer_list@Vvalue_ref@json@boost@@@std@@@Z"
                                        # -- End function
	.def	 "?shrink_to_fit@array@json@boost@@QEAAXXZ";
	.scl	2;
	.type	32;
	.endef
	.section	.text,"xr",one_only,"?shrink_to_fit@array@json@boost@@QEAAXXZ"
	.globl	"?shrink_to_fit@array@json@boost@@QEAAXXZ" # -- Begin function ?shrink_to_fit@array@json@boost@@QEAAXXZ
	.p2align	4, 0x90
"?shrink_to_fit@array@json@boost@@QEAAXXZ": # @"?shrink_to_fit@array@json@boost@@QEAAXXZ"
.Lfunc_begin14:
.seh_proc "?shrink_to_fit@array@json@boost@@QEAAXXZ"
	.seh_handler __CxxFrameHandler3, @unwind, @except
# %bb.0:
	push	rbp
	.seh_pushreg rbp
	push	r14
	.seh_pushreg r14
	push	rsi
	.seh_pushreg rsi
	push	rdi
	.seh_pushreg rdi
	push	rbx
	.seh_pushreg rbx
	sub	rsp, 48
	.seh_stackalloc 48
	lea	rbp, [rsp + 48]
	.seh_setframe rbp, 48
	.seh_endprologue
	mov	qword ptr [rbp - 8], -2
	mov	rax, qword ptr [rcx + 16]
	test	rax, rax
	je	.LBB22_25
# %bb.1:
	mov	edi, dword ptr [rax]
	mov	eax, dword ptr [rax + 4]
	cmp	eax, edi
	jbe	.LBB22_25
# %bb.2:
	mov	rsi, rcx
	lea	r14, [rcx + 16]
	test	edi, edi
	je	.LBB22_3
# %bb.4:
	cmp	edi, 15
	ja	.LBB22_6
# %bb.5:
	cmp	eax, 17
	jb	.LBB22_25
.LBB22_6:
	mov	qword ptr [rbp - 16], 0
	cmp	edi, 2147483647
	jae	.LBB22_7
# %bb.9:
	mov	rbx, qword ptr [rsi]
	test	rbx, rbx
	je	.LBB22_11
# %bb.10:
	and	rbx, -4
	jmp	.LBB22_14
.LBB22_3:
	mov	rcx, r14
	mov	rdx, rsi
	call	"?destroy@array_impl@detail@json@boost@@QEAAXAEBVstorage_ptr@34@@Z"
	mov	qword ptr [rsi + 16], 0
	jmp	.LBB22_25
.LBB22_11:
	mov	eax, dword ptr [rip + "?$TSS0@?1??get_default@storage_ptr@json@boost@@CAPEAVmemory_resource@pmr@container@3@XZ@4HA"]
	mov	ecx, dword ptr [rip + _tls_index]
	mov	rdx, qword ptr gs:[88]
	mov	rcx, qword ptr [rdx + 8*rcx]
	lea	rbx, [rip + "?impl@?1??get_default@storage_ptr@json@boost@@CAPEAVmemory_resource@pmr@container@4@XZ@4Vdefault_resource@detail@34@A"]
	cmp	eax, dword ptr [rcx + _Init_thread_epoch@SECREL32]
	jg	.LBB22_12
.LBB22_14:
	lea	rax, [rdi + 2*rdi]
	lea	rax, [8*rax + 17]
	movabs	rdx, 274877906936
	and	rdx, rax
	mov	rax, qword ptr [rbx]
.Ltmp46:
	mov	r8d, 8
	mov	rcx, rbx
	call	qword ptr [rax + 8]
.Ltmp47:
# %bb.15:
	mov	rbx, rax
	mov	qword ptr [rbp - 16], rax
	mov	dword ptr [rax + 4], edi
	mov	dword ptr [rax], 0
	mov	rdx, qword ptr [r14]
	test	rdx, rdx
	je	.LBB22_20
# %bb.16:
	mov	eax, dword ptr [rdx]
	test	rax, rax
	je	.LBB22_18
# %bb.17:
	lea	rcx, [rbx + 8]
	add	rdx, 8
	test	rbx, rbx
	cmove	rcx, rbx
	shl	rax, 3
	lea	r8, [rax + 2*rax]
	call	memmove
	mov	rdx, qword ptr [r14]
	test	rdx, rdx
	je	.LBB22_20
.LBB22_18:
	test	rbx, rbx
	je	.LBB22_23
# %bb.19:
	mov	eax, dword ptr [rdx]
	jmp	.LBB22_21
.LBB22_20:
	xor	eax, eax
	test	rbx, rbx
	je	.LBB22_22
.LBB22_21:
	mov	dword ptr [rbx], eax
	mov	rdx, qword ptr [r14]
	test	rdx, rdx
	je	.LBB22_22
.LBB22_23:
	mov	dword ptr [rdx], 0
	mov	rax, qword ptr [r14]
	jmp	.LBB22_24
.LBB22_22:
	xor	eax, eax
.LBB22_24:
	mov	qword ptr [rsi + 16], rbx
	mov	qword ptr [rbp - 16], rax
	lea	rcx, [rbp - 16]
	mov	rdx, rsi
	call	"?destroy@array_impl@detail@json@boost@@QEAAXAEBVstorage_ptr@34@@Z"
.LBB22_25:                              # Block address taken
	nop
	add	rsp, 48
	pop	rbx
	pop	rdi
	pop	rsi
	pop	r14
	pop	rbp
	ret
.LBB22_12:
	lea	rcx, [rip + "?$TSS0@?1??get_default@storage_ptr@json@boost@@CAPEAVmemory_resource@pmr@container@3@XZ@4HA"]
	call	_Init_thread_header
	cmp	dword ptr [rip + "?$TSS0@?1??get_default@storage_ptr@json@boost@@CAPEAVmemory_resource@pmr@container@3@XZ@4HA"], -1
	jne	.LBB22_14
# %bb.13:
	lea	rcx, [rip + "??__Fimpl@?1??get_default@storage_ptr@json@boost@@CAPEAVmemory_resource@pmr@container@4@XZ@YAXXZ"]
	call	atexit
	lea	rcx, [rip + "?$TSS0@?1??get_default@storage_ptr@json@boost@@CAPEAVmemory_resource@pmr@container@3@XZ@4HA"]
	call	_Init_thread_footer
	jmp	.LBB22_14
.LBB22_7:
.Ltmp48:
	call	"?raise@array_too_large@json@boost@@SAXXZ"
	sub	rsp, 32
.Ltmp49:
# %bb.8:
	.seh_handlerdata
	.long	("$cppxdata$?shrink_to_fit@array@json@boost@@QEAAXXZ")@IMGREL
	.section	.text,"xr",one_only,"?shrink_to_fit@array@json@boost@@QEAAXXZ"
	.seh_endproc
	.def	 "?dtor$26@?0??shrink_to_fit@array@json@boost@@QEAAXXZ@4HA";
	.scl	3;
	.type	32;
	.endef
	.p2align	4, 0x90
"?dtor$26@?0??shrink_to_fit@array@json@boost@@QEAAXXZ@4HA":
.seh_proc "?dtor$26@?0??shrink_to_fit@array@json@boost@@QEAAXXZ@4HA"
.LBB22_26:
	mov	qword ptr [rsp + 16], rdx
	push	rbp
	.seh_pushreg rbp
	push	r14
	.seh_pushreg r14
	push	rsi
	.seh_pushreg rsi
	push	rdi
	.seh_pushreg rdi
	push	rbx
	.seh_pushreg rbx
	sub	rsp, 32
	.seh_stackalloc 32
	lea	rbp, [rdx + 48]
	.seh_endprologue
	call	__std_terminate
	int3
	.seh_handlerdata
	.section	.text,"xr",one_only,"?shrink_to_fit@array@json@boost@@QEAAXXZ"
	.seh_endproc
	.def	 "?catch$27@?0??shrink_to_fit@array@json@boost@@QEAAXXZ@4HA";
	.scl	3;
	.type	32;
	.endef
	.p2align	4, 0x90
"?catch$27@?0??shrink_to_fit@array@json@boost@@QEAAXXZ@4HA":
.seh_proc "?catch$27@?0??shrink_to_fit@array@json@boost@@QEAAXXZ@4HA"
	.seh_handler __CxxFrameHandler3, @unwind, @except
.LBB22_27:
	mov	qword ptr [rsp + 16], rdx
	push	rbp
	.seh_pushreg rbp
	push	r14
	.seh_pushreg r14
	push	rsi
	.seh_pushreg rsi
	push	rdi
	.seh_pushreg rdi
	push	rbx
	.seh_pushreg rbx
	sub	rsp, 32
	.seh_stackalloc 32
	lea	rbp, [rdx + 48]
	.seh_endprologue
	lea	rax, [rip + .LBB22_25]
	add	rsp, 32
	pop	rbx
	pop	rdi
	pop	rsi
	pop	r14
	pop	rbp
	ret                             # CATCHRET
.Lfunc_end14:
	.seh_handlerdata
	.long	("$cppxdata$?shrink_to_fit@array@json@boost@@QEAAXXZ")@IMGREL
	.section	.text,"xr",one_only,"?shrink_to_fit@array@json@boost@@QEAAXXZ"
	.seh_endproc
	.section	.xdata,"dr",associative,"?shrink_to_fit@array@json@boost@@QEAAXXZ"
	.p2align	2
"$cppxdata$?shrink_to_fit@array@json@boost@@QEAAXXZ":
	.long	429065506               # MagicNumber
	.long	3                       # MaxState
	.long	("$stateUnwindMap$?shrink_to_fit@array@json@boost@@QEAAXXZ")@IMGREL # UnwindMap
	.long	1                       # NumTryBlocks
	.long	("$tryMap$?shrink_to_fit@array@json@boost@@QEAAXXZ")@IMGREL # TryBlockMap
	.long	6                       # IPMapEntries
	.long	("$ip2state$?shrink_to_fit@array@json@boost@@QEAAXXZ")@IMGREL # IPToStateXData
	.long	40                      # UnwindHelp
	.long	0                       # ESTypeList
	.long	1                       # EHFlags
"$stateUnwindMap$?shrink_to_fit@array@json@boost@@QEAAXXZ":
	.long	-1                      # ToState
	.long	"?dtor$26@?0??shrink_to_fit@array@json@boost@@QEAAXXZ@4HA"@IMGREL # Action
	.long	0                       # ToState
	.long	0                       # Action
	.long	0                       # ToState
	.long	0                       # Action
"$tryMap$?shrink_to_fit@array@json@boost@@QEAAXXZ":
	.long	1                       # TryLow
	.long	1                       # TryHigh
	.long	2                       # CatchHigh
	.long	1                       # NumCatches
	.long	("$handlerMap$0$?shrink_to_fit@array@json@boost@@QEAAXXZ")@IMGREL # HandlerArray
"$handlerMap$0$?shrink_to_fit@array@json@boost@@QEAAXXZ":
	.long	64                      # Adjectives
	.long	0                       # Type
	.long	0                       # CatchObjOffset
	.long	"?catch$27@?0??shrink_to_fit@array@json@boost@@QEAAXXZ@4HA"@IMGREL # Handler
	.long	88                      # ParentFrameOffset
"$ip2state$?shrink_to_fit@array@json@boost@@QEAAXXZ":
	.long	.Lfunc_begin14@IMGREL   # IP
	.long	-1                      # ToState
	.long	.Ltmp46@IMGREL+1        # IP
	.long	1                       # ToState
	.long	.Ltmp47@IMGREL+1        # IP
	.long	-1                      # ToState
	.long	.Ltmp48@IMGREL+1        # IP
	.long	1                       # ToState
	.long	.Ltmp49@IMGREL+1        # IP
	.long	-1                      # ToState
	.long	"?catch$27@?0??shrink_to_fit@array@json@boost@@QEAAXXZ@4HA"@IMGREL # IP
	.long	2                       # ToState
	.section	.text,"xr",one_only,"?shrink_to_fit@array@json@boost@@QEAAXXZ"
                                        # -- End function
	.def	 "?clear@array@json@boost@@QEAAXXZ";
	.scl	2;
	.type	32;
	.endef
	.section	.text,"xr",one_only,"?clear@array@json@boost@@QEAAXXZ"
	.globl	"?clear@array@json@boost@@QEAAXXZ" # -- Begin function ?clear@array@json@boost@@QEAAXXZ
	.p2align	4, 0x90
"?clear@array@json@boost@@QEAAXXZ":     # @"?clear@array@json@boost@@QEAAXXZ"
.seh_proc "?clear@array@json@boost@@QEAAXXZ"
# %bb.0:
	push	rsi
	.seh_pushreg rsi
	push	rdi
	.seh_pushreg rdi
	push	rbx
	.seh_pushreg rbx
	sub	rsp, 32
	.seh_stackalloc 32
	.seh_endprologue
	mov	rdi, qword ptr [rcx + 16]
	test	rdi, rdi
	je	.LBB23_7
# %bb.1:
	mov	rsi, rcx
	mov	eax, dword ptr [rcx]
	and	eax, 3
	cmp	eax, 2
	je	.LBB23_6
# %bb.2:
	lea	rcx, [rdi + 8]
	mov	eax, dword ptr [rdi]
	lea	rdx, [rax + 2*rax]
	lea	rdx, [rcx + 8*rdx]
	cmp	rdx, rcx
	je	.LBB23_6
# %bb.3:
	shl	rax, 3
	lea	rbx, [rax + 2*rax]
	add	rdi, -16
	.p2align	4, 0x90
.LBB23_4:                               # =>This Inner Loop Header: Depth=1
	lea	rcx, [rdi + rbx]
	call	"??1value@json@boost@@QEAA@XZ"
	add	rbx, -24
	jne	.LBB23_4
# %bb.5:
	mov	rdi, qword ptr [rsi + 16]
	test	rdi, rdi
	je	.LBB23_7
.LBB23_6:
	mov	dword ptr [rdi], 0
.LBB23_7:
	add	rsp, 32
	pop	rbx
	pop	rdi
	pop	rsi
	ret
	.seh_handlerdata
	.section	.text,"xr",one_only,"?clear@array@json@boost@@QEAAXXZ"
	.seh_endproc
                                        # -- End function
	.def	 "?insert@array@json@boost@@QEAAPEAVvalue@23@PEBV423@_KAEBV423@@Z";
	.scl	2;
	.type	32;
	.endef
	.section	.text,"xr",one_only,"?insert@array@json@boost@@QEAAPEAVvalue@23@PEBV423@_KAEBV423@@Z"
	.globl	"?insert@array@json@boost@@QEAAPEAVvalue@23@PEBV423@_KAEBV423@@Z" # -- Begin function ?insert@array@json@boost@@QEAAPEAVvalue@23@PEBV423@_KAEBV423@@Z
	.p2align	4, 0x90
"?insert@array@json@boost@@QEAAPEAVvalue@23@PEBV423@_KAEBV423@@Z": # @"?insert@array@json@boost@@QEAAPEAVvalue@23@PEBV423@_KAEBV423@@Z"
.Lfunc_begin15:
.seh_proc "?insert@array@json@boost@@QEAAPEAVvalue@23@PEBV423@_KAEBV423@@Z"
	.seh_handler __CxxFrameHandler3, @unwind, @except
# %bb.0:
	push	rbp
	.seh_pushreg rbp
	push	r15
	.seh_pushreg r15
	push	r14
	.seh_pushreg r14
	push	rsi
	.seh_pushreg rsi
	push	rdi
	.seh_pushreg rdi
	push	rbx
	.seh_pushreg rbx
	sub	rsp, 104
	.seh_stackalloc 104
	lea	rbp, [rsp + 96]
	.seh_setframe rbp, 96
	.seh_endprologue
	mov	qword ptr [rbp], -2
	mov	qword ptr [rbp - 8], rcx # 8-byte Spill
	mov	rax, qword ptr [rcx + 16]
	lea	rcx, [rax + 8]
	test	rax, rax
	cmove	rcx, rax
	cmp	r8, 2147483647
	jae	.LBB24_20
# %bb.1:
	mov	r14, r9
	mov	r15, r8
	sub	rdx, rcx
	mov	qword ptr [rbp - 48], rdx # 8-byte Spill
	mov	rbx, rdx
	mov	rsi, rdx
	sar	rsi, 3
	movabs	rcx, -6148914691236517205
	test	rax, rax
	je	.LBB24_3
# %bb.2:
	mov	edx, dword ptr [rax]
	mov	edi, dword ptr [rax + 4]
	add	rdx, r15
	jmp	.LBB24_4
.LBB24_3:
	xor	edi, edi
	mov	rdx, r15
.LBB24_4:
	imul	rsi, rcx
	cmp	rdi, rdx
	jae	.LBB24_6
# %bb.5:
	mov	rdi, qword ptr [rbp - 8] # 8-byte Reload
	mov	rcx, rdi
	call	"?reserve_impl@array@json@boost@@AEAAX_K@Z"
	mov	rax, qword ptr [rdi + 16]
.LBB24_6:
	lea	rbx, [rax + 8]
	lea	rdi, [rsi + 2*rsi]
	test	rax, rax
	cmove	rbx, rax
	je	.LBB24_8
# %bb.7:
	mov	edx, dword ptr [rax]
	jmp	.LBB24_9
.LBB24_8:
	xor	edx, edx
.LBB24_9:
	mov	rcx, rdi
	mov	qword ptr [rbp - 32], rdi # 8-byte Spill
	lea	rdi, [rbx + 8*rdi]
	sub	rdx, rsi
	je	.LBB24_11
# %bb.10:
	lea	rax, [r15 + 2*r15]
	lea	rcx, [rdi + 8*rax]
	shl	rdx, 3
	lea	r8, [rdx + 2*rdx]
	mov	rdx, rdi
	call	memmove
	mov	rax, qword ptr [rbp - 8] # 8-byte Reload
	mov	rax, qword ptr [rax + 16]
.LBB24_11:
	mov	qword ptr [rbp - 56], rsi # 8-byte Spill
	test	rax, rax
	je	.LBB24_13
# %bb.12:
	add	dword ptr [rax], r15d
.LBB24_13:
	mov	qword ptr [rbp - 16], r15 # 8-byte Spill
	test	r15, r15
	je	.LBB24_19
# %bb.14:
	mov	rax, rbx
	neg	rax
	lea	r15, [rbp - 64]
	mov	rsi, qword ptr [rbp - 16] # 8-byte Reload
	.p2align	4, 0x90
.LBB24_15:                              # =>This Inner Loop Header: Depth=1
	mov	qword ptr [rbp - 24], rax # 8-byte Spill
	mov	qword ptr [rbp - 40], rbx # 8-byte Spill
	mov	rax, qword ptr [rbp - 8] # 8-byte Reload
	mov	rax, qword ptr [rax]
	mov	qword ptr [rbp - 64], rax
	test	al, 1
	je	.LBB24_17
# %bb.16:                               #   in Loop: Header=BB24_15 Depth=1
	and	rax, -4
	lock		add	qword ptr [rax + 8], 1
.LBB24_17:                              #   in Loop: Header=BB24_15 Depth=1
.Ltmp50:
	mov	rcx, rdi
	mov	rdx, r14
	mov	r8, r15
	call	"??0value@json@boost@@QEAA@AEBV012@Vstorage_ptr@12@@Z"
.Ltmp51:
# %bb.18:                               #   in Loop: Header=BB24_15 Depth=1
	add	rsi, -1
	add	rdi, 24
	mov	rbx, qword ptr [rbp - 40] # 8-byte Reload
	add	rbx, 24
	mov	rax, qword ptr [rbp - 24] # 8-byte Reload
	add	rax, -24
	test	rsi, rsi
	jne	.LBB24_15
.LBB24_19:
	mov	rax, qword ptr [rbp - 8] # 8-byte Reload
	mov	rax, qword ptr [rax + 16]
	lea	rcx, [rax + 8]
	test	rax, rax
	cmove	rcx, rax
	mov	rax, qword ptr [rbp - 32] # 8-byte Reload
	lea	rax, [rcx + 8*rax]
	add	rsp, 104
	pop	rbx
	pop	rdi
	pop	rsi
	pop	r14
	pop	r15
	pop	rbp
	ret
.LBB24_20:
	call	"?raise@array_too_large@json@boost@@SAXXZ"
	int3
	.seh_handlerdata
	.long	("$cppxdata$?insert@array@json@boost@@QEAAPEAVvalue@23@PEBV423@_KAEBV423@@Z")@IMGREL
	.section	.text,"xr",one_only,"?insert@array@json@boost@@QEAAPEAVvalue@23@PEBV423@_KAEBV423@@Z"
	.seh_endproc
	.def	 "?dtor$21@?0??insert@array@json@boost@@QEAAPEAVvalue@23@PEBV423@_KAEBV423@@Z@4HA";
	.scl	3;
	.type	32;
	.endef
	.p2align	4, 0x90
"?dtor$21@?0??insert@array@json@boost@@QEAAPEAVvalue@23@PEBV423@_KAEBV423@@Z@4HA":
.seh_proc "?dtor$21@?0??insert@array@json@boost@@QEAAPEAVvalue@23@PEBV423@_KAEBV423@@Z@4HA"
.LBB24_21:
	mov	qword ptr [rsp + 16], rdx
	push	rbp
	.seh_pushreg rbp
	push	r15
	.seh_pushreg r15
	push	r14
	.seh_pushreg r14
	push	rsi
	.seh_pushreg rsi
	push	rdi
	.seh_pushreg rdi
	push	rbx
	.seh_pushreg rbx
	sub	rsp, 40
	.seh_stackalloc 40
	lea	rbp, [rdx + 96]
	.seh_endprologue
	mov	rcx, qword ptr [rbp - 8] # 8-byte Reload
	mov	rax, qword ptr [rcx + 16]
	lea	rsi, [rax + 8]
	test	rax, rax
	cmove	rsi, rax
	mov	ecx, dword ptr [rcx]
	and	ecx, 3
	cmp	ecx, 2
	je	.LBB24_26
# %bb.22:
	mov	rcx, rsi
	add	rcx, qword ptr [rbp - 24] # 8-byte Folded Reload
	je	.LBB24_26
# %bb.23:
	mov	rbx, qword ptr [rbp - 48] # 8-byte Reload
	sub	rbx, qword ptr [rbp - 24] # 8-byte Folded Reload
	add	rbx, -24
	mov	rdi, rsi
	sub	rdi, qword ptr [rbp - 40] # 8-byte Folded Reload
.LBB24_24:                              # =>This Inner Loop Header: Depth=1
	mov	rcx, rbx
	call	"??1value@json@boost@@QEAA@XZ"
	add	rbx, -24
	add	rdi, 24
	jne	.LBB24_24
# %bb.25:
	mov	rax, qword ptr [rbp - 8] # 8-byte Reload
	mov	rax, qword ptr [rax + 16]
.LBB24_26:
	test	rax, rax
	je	.LBB24_30
# %bb.27:
	mov	rcx, qword ptr [rbp - 16] # 8-byte Reload
	sub	dword ptr [rax], ecx
	mov	rax, qword ptr [rbp - 8] # 8-byte Reload
	mov	rax, qword ptr [rax + 16]
	test	rax, rax
	je	.LBB24_30
# %bb.28:
	mov	eax, dword ptr [rax]
	jmp	.LBB24_31
.LBB24_30:
	xor	eax, eax
.LBB24_31:
	sub	rax, qword ptr [rbp - 56] # 8-byte Folded Reload
	je	.LBB24_33
# %bb.32:
	mov	rcx, qword ptr [rbp - 32] # 8-byte Reload
	lea	rcx, [rsi + 8*rcx]
	mov	rdx, qword ptr [rbp - 16] # 8-byte Reload
	lea	rdx, [rdx + 2*rdx]
	lea	rdx, [rcx + 8*rdx]
	shl	rax, 3
	lea	r8, [rax + 2*rax]
	call	memmove
.LBB24_33:
	nop
	add	rsp, 40
	pop	rbx
	pop	rdi
	pop	rsi
	pop	r14
	pop	r15
	pop	rbp
	ret                             # CLEANUPRET
.Lfunc_end15:
	.seh_handlerdata
	.section	.text,"xr",one_only,"?insert@array@json@boost@@QEAAPEAVvalue@23@PEBV423@_KAEBV423@@Z"
	.seh_endproc
	.section	.xdata,"dr",associative,"?insert@array@json@boost@@QEAAPEAVvalue@23@PEBV423@_KAEBV423@@Z"
	.p2align	2
"$cppxdata$?insert@array@json@boost@@QEAAPEAVvalue@23@PEBV423@_KAEBV423@@Z":
	.long	429065506               # MagicNumber
	.long	1                       # MaxState
	.long	("$stateUnwindMap$?insert@array@json@boost@@QEAAPEAVvalue@23@PEBV423@_KAEBV423@@Z")@IMGREL # UnwindMap
	.long	0                       # NumTryBlocks
	.long	0                       # TryBlockMap
	.long	3                       # IPMapEntries
	.long	("$ip2state$?insert@array@json@boost@@QEAAPEAVvalue@23@PEBV423@_KAEBV423@@Z")@IMGREL # IPToStateXData
	.long	96                      # UnwindHelp
	.long	0                       # ESTypeList
	.long	1                       # EHFlags
"$stateUnwindMap$?insert@array@json@boost@@QEAAPEAVvalue@23@PEBV423@_KAEBV423@@Z":
	.long	-1                      # ToState
	.long	"?dtor$21@?0??insert@array@json@boost@@QEAAPEAVvalue@23@PEBV423@_KAEBV423@@Z@4HA"@IMGREL # Action
"$ip2state$?insert@array@json@boost@@QEAAPEAVvalue@23@PEBV423@_KAEBV423@@Z":
	.long	.Lfunc_begin15@IMGREL   # IP
	.long	-1                      # ToState
	.long	.Ltmp50@IMGREL+1        # IP
	.long	0                       # ToState
	.long	.Ltmp51@IMGREL+1        # IP
	.long	-1                      # ToState
	.section	.text,"xr",one_only,"?insert@array@json@boost@@QEAAPEAVvalue@23@PEBV423@_KAEBV423@@Z"
                                        # -- End function
	.def	 "?insert@array@json@boost@@QEAAPEAVvalue@23@PEBV423@V?$initializer_list@Vvalue_ref@json@boost@@@std@@@Z";
	.scl	2;
	.type	32;
	.endef
	.section	.text,"xr",one_only,"?insert@array@json@boost@@QEAAPEAVvalue@23@PEBV423@V?$initializer_list@Vvalue_ref@json@boost@@@std@@@Z"
	.globl	"?insert@array@json@boost@@QEAAPEAVvalue@23@PEBV423@V?$initializer_list@Vvalue_ref@json@boost@@@std@@@Z" # -- Begin function ?insert@array@json@boost@@QEAAPEAVvalue@23@PEBV423@V?$initializer_list@Vvalue_ref@json@boost@@@std@@@Z
	.p2align	4, 0x90
"?insert@array@json@boost@@QEAAPEAVvalue@23@PEBV423@V?$initializer_list@Vvalue_ref@json@boost@@@std@@@Z": # @"?insert@array@json@boost@@QEAAPEAVvalue@23@PEBV423@V?$initializer_list@Vvalue_ref@json@boost@@@std@@@Z"
.Lfunc_begin16:
.seh_proc "?insert@array@json@boost@@QEAAPEAVvalue@23@PEBV423@V?$initializer_list@Vvalue_ref@json@boost@@@std@@@Z"
	.seh_handler __CxxFrameHandler3, @unwind, @except
# %bb.0:
	push	rbp
	.seh_pushreg rbp
	push	r15
	.seh_pushreg r15
	push	r14
	.seh_pushreg r14
	push	r13
	.seh_pushreg r13
	push	r12
	.seh_pushreg r12
	push	rsi
	.seh_pushreg rsi
	push	rdi
	.seh_pushreg rdi
	push	rbx
	.seh_pushreg rbx
	sub	rsp, 104
	.seh_stackalloc 104
	lea	rbp, [rsp + 96]
	.seh_setframe rbp, 96
	.seh_endprologue
	mov	qword ptr [rbp], -2
	mov	rax, qword ptr [r8 + 8]
	sub	rax, qword ptr [r8]
	sar	rax, 3
	movabs	r15, -3689348814741910323
	imul	r15, rax
	mov	qword ptr [rbp - 8], rcx # 8-byte Spill
	mov	rax, qword ptr [rcx + 16]
	lea	rcx, [rax + 8]
	test	rax, rax
	cmove	rcx, rax
	cmp	r15, 2147483647
	jae	.LBB25_22
# %bb.1:
	mov	r14, r8
	mov	rsi, rdx
	sub	rsi, rcx
	test	rax, rax
	je	.LBB25_3
# %bb.2:
	mov	edx, dword ptr [rax]
	mov	ecx, dword ptr [rax + 4]
	add	rdx, r15
	jmp	.LBB25_4
.LBB25_3:
	xor	ecx, ecx
	mov	rdx, r15
.LBB25_4:
	sar	rsi, 3
	movabs	rdi, -6148914691236517205
	cmp	rcx, rdx
	jae	.LBB25_6
# %bb.5:
	mov	rbx, qword ptr [rbp - 8] # 8-byte Reload
	mov	rcx, rbx
	call	"?reserve_impl@array@json@boost@@AEAAX_K@Z"
	mov	rax, qword ptr [rbx + 16]
.LBB25_6:
	imul	rsi, rdi
	lea	r13, [rax + 8]
	test	rax, rax
	cmove	r13, rax
	je	.LBB25_8
# %bb.7:
	mov	ebx, dword ptr [rax]
	jmp	.LBB25_9
.LBB25_8:
	xor	ebx, ebx
.LBB25_9:
	lea	r12, [rsi + 2*rsi]
	sub	rbx, rsi
	je	.LBB25_11
# %bb.10:
	lea	rdx, [8*r12]
	add	rdx, r13
	lea	rax, [r15 + 2*r15]
	lea	rcx, [rdx + 8*rax]
	shl	rbx, 3
	lea	r8, [rbx + 2*rbx]
	call	memmove
	mov	rax, qword ptr [rbp - 8] # 8-byte Reload
	mov	rax, qword ptr [rax + 16]
.LBB25_11:
	test	rax, rax
	je	.LBB25_13
# %bb.12:
	add	dword ptr [rax], r15d
	mov	rax, qword ptr [rbp - 8] # 8-byte Reload
	mov	rax, qword ptr [rax + 16]
	jmp	.LBB25_14
.LBB25_13:
	xor	eax, eax
.LBB25_14:
	mov	rdi, qword ptr [r14]
	mov	rbx, qword ptr [r14 + 8]
	lea	rcx, [rax + 8]
	test	rax, rax
	cmove	rcx, rax
	cmp	rdi, rbx
	je	.LBB25_21
# %bb.15:
	mov	qword ptr [rbp - 24], r13 # 8-byte Spill
	mov	qword ptr [rbp - 32], r15 # 8-byte Spill
	mov	qword ptr [rbp - 56], rsi # 8-byte Spill
	mov	qword ptr [rbp - 16], r12 # 8-byte Spill
	lea	rax, [rcx + 8*r12]
	lea	rsi, [rbp - 64]
	mov	qword ptr [rbp - 48], rax # 8-byte Spill
	mov	rdx, rax
	.p2align	4, 0x90
.LBB25_16:                              # =>This Inner Loop Header: Depth=1
	mov	rax, qword ptr [rbp - 8] # 8-byte Reload
	mov	rax, qword ptr [rax]
	mov	qword ptr [rbp - 64], rax
	test	al, 1
	je	.LBB25_18
# %bb.17:                               #   in Loop: Header=BB25_16 Depth=1
	and	rax, -4
	lock		add	qword ptr [rax + 8], 1
.LBB25_18:                              #   in Loop: Header=BB25_16 Depth=1
.Ltmp52:
	mov	rcx, rdi
	mov	r8, rsi
	mov	qword ptr [rbp - 40], rdx # 8-byte Spill
	call	"?make_value@value_ref@json@boost@@AEBA?AVvalue@23@Vstorage_ptr@23@@Z"
.Ltmp53:
# %bb.19:                               #   in Loop: Header=BB25_16 Depth=1
	mov	rdx, qword ptr [rbp - 40] # 8-byte Reload
	add	rdx, 24
	add	rdi, 40
	cmp	rbx, rdi
	jne	.LBB25_16
# %bb.20:
	mov	rax, qword ptr [rbp - 8] # 8-byte Reload
	mov	rax, qword ptr [rax + 16]
	mov	r12, qword ptr [rbp - 16] # 8-byte Reload
.LBB25_21:
	lea	rcx, [rax + 8]
	test	rax, rax
	cmove	rcx, rax
	lea	rax, [rcx + 8*r12]
	add	rsp, 104
	pop	rbx
	pop	rdi
	pop	rsi
	pop	r12
	pop	r13
	pop	r14
	pop	r15
	pop	rbp
	ret
.LBB25_22:
	call	"?raise@array_too_large@json@boost@@SAXXZ"
	int3
	.seh_handlerdata
	.long	("$cppxdata$?insert@array@json@boost@@QEAAPEAVvalue@23@PEBV423@V?$initializer_list@Vvalue_ref@json@boost@@@std@@@Z")@IMGREL
	.section	.text,"xr",one_only,"?insert@array@json@boost@@QEAAPEAVvalue@23@PEBV423@V?$initializer_list@Vvalue_ref@json@boost@@@std@@@Z"
	.seh_endproc
	.def	 "?dtor$23@?0??insert@array@json@boost@@QEAAPEAVvalue@23@PEBV423@V?$initializer_list@Vvalue_ref@json@boost@@@std@@@Z@4HA";
	.scl	3;
	.type	32;
	.endef
	.p2align	4, 0x90
"?dtor$23@?0??insert@array@json@boost@@QEAAPEAVvalue@23@PEBV423@V?$initializer_list@Vvalue_ref@json@boost@@@std@@@Z@4HA":
.seh_proc "?dtor$23@?0??insert@array@json@boost@@QEAAPEAVvalue@23@PEBV423@V?$initializer_list@Vvalue_ref@json@boost@@@std@@@Z@4HA"
.LBB25_23:
	mov	qword ptr [rsp + 16], rdx
	push	rbp
	.seh_pushreg rbp
	push	r15
	.seh_pushreg r15
	push	r14
	.seh_pushreg r14
	push	r13
	.seh_pushreg r13
	push	r12
	.seh_pushreg r12
	push	rsi
	.seh_pushreg rsi
	push	rdi
	.seh_pushreg rdi
	push	rbx
	.seh_pushreg rbx
	sub	rsp, 40
	.seh_stackalloc 40
	lea	rbp, [rdx + 96]
	.seh_endprologue
	mov	rsi, qword ptr [rbp - 48] # 8-byte Reload
	mov	rdi, qword ptr [rbp - 40] # 8-byte Reload
	cmp	rdi, rsi
	jbe	.LBB25_25
.LBB25_24:                              # =>This Inner Loop Header: Depth=1
	add	rdi, -24
	mov	rcx, rdi
	call	"??1value@json@boost@@QEAA@XZ"
	cmp	rdi, rsi
	ja	.LBB25_24
.LBB25_25:
	mov	rcx, qword ptr [rbp - 8] # 8-byte Reload
	mov	rax, qword ptr [rcx + 16]
	lea	rdi, [rax + 8]
	test	rax, rax
	cmove	rdi, rax
	mov	ecx, dword ptr [rcx]
	and	ecx, 3
	cmp	ecx, 2
	je	.LBB25_30
# %bb.26:
	cmp	qword ptr [rbp - 24], rdi # 8-byte Folded Reload
	je	.LBB25_30
# %bb.27:
	mov	rax, qword ptr [rbp - 16] # 8-byte Reload
	mov	rcx, qword ptr [rbp - 24] # 8-byte Reload
	lea	rsi, [rcx + 8*rax]
	add	rsi, -24
	mov	rbx, rdi
	sub	rbx, rcx
.LBB25_28:                              # =>This Inner Loop Header: Depth=1
	mov	rcx, rsi
	call	"??1value@json@boost@@QEAA@XZ"
	add	rsi, -24
	add	rbx, 24
	jne	.LBB25_28
# %bb.29:
	mov	rax, qword ptr [rbp - 8] # 8-byte Reload
	mov	rax, qword ptr [rax + 16]
.LBB25_30:
	test	rax, rax
	je	.LBB25_34
# %bb.31:
	mov	rcx, qword ptr [rbp - 32] # 8-byte Reload
	sub	dword ptr [rax], ecx
	mov	rax, qword ptr [rbp - 8] # 8-byte Reload
	mov	rax, qword ptr [rax + 16]
	test	rax, rax
	je	.LBB25_34
# %bb.32:
	mov	eax, dword ptr [rax]
	jmp	.LBB25_35
.LBB25_34:
	xor	eax, eax
.LBB25_35:
	sub	rax, qword ptr [rbp - 56] # 8-byte Folded Reload
	je	.LBB25_37
# %bb.36:
	mov	rcx, qword ptr [rbp - 16] # 8-byte Reload
	lea	rcx, [rdi + 8*rcx]
	mov	rdx, qword ptr [rbp - 32] # 8-byte Reload
	lea	rdx, [rdx + 2*rdx]
	lea	rdx, [rcx + 8*rdx]
	shl	rax, 3
	lea	r8, [rax + 2*rax]
	call	memmove
.LBB25_37:
	nop
	add	rsp, 40
	pop	rbx
	pop	rdi
	pop	rsi
	pop	r12
	pop	r13
	pop	r14
	pop	r15
	pop	rbp
	ret                             # CLEANUPRET
.Lfunc_end16:
	.seh_handlerdata
	.section	.text,"xr",one_only,"?insert@array@json@boost@@QEAAPEAVvalue@23@PEBV423@V?$initializer_list@Vvalue_ref@json@boost@@@std@@@Z"
	.seh_endproc
	.section	.xdata,"dr",associative,"?insert@array@json@boost@@QEAAPEAVvalue@23@PEBV423@V?$initializer_list@Vvalue_ref@json@boost@@@std@@@Z"
	.p2align	2
"$cppxdata$?insert@array@json@boost@@QEAAPEAVvalue@23@PEBV423@V?$initializer_list@Vvalue_ref@json@boost@@@std@@@Z":
	.long	429065506               # MagicNumber
	.long	1                       # MaxState
	.long	("$stateUnwindMap$?insert@array@json@boost@@QEAAPEAVvalue@23@PEBV423@V?$initializer_list@Vvalue_ref@json@boost@@@std@@@Z")@IMGREL # UnwindMap
	.long	0                       # NumTryBlocks
	.long	0                       # TryBlockMap
	.long	3                       # IPMapEntries
	.long	("$ip2state$?insert@array@json@boost@@QEAAPEAVvalue@23@PEBV423@V?$initializer_list@Vvalue_ref@json@boost@@@std@@@Z")@IMGREL # IPToStateXData
	.long	96                      # UnwindHelp
	.long	0                       # ESTypeList
	.long	1                       # EHFlags
"$stateUnwindMap$?insert@array@json@boost@@QEAAPEAVvalue@23@PEBV423@V?$initializer_list@Vvalue_ref@json@boost@@@std@@@Z":
	.long	-1                      # ToState
	.long	"?dtor$23@?0??insert@array@json@boost@@QEAAPEAVvalue@23@PEBV423@V?$initializer_list@Vvalue_ref@json@boost@@@std@@@Z@4HA"@IMGREL # Action
"$ip2state$?insert@array@json@boost@@QEAAPEAVvalue@23@PEBV423@V?$initializer_list@Vvalue_ref@json@boost@@@std@@@Z":
	.long	.Lfunc_begin16@IMGREL   # IP
	.long	-1                      # ToState
	.long	.Ltmp52@IMGREL+1        # IP
	.long	0                       # ToState
	.long	.Ltmp53@IMGREL+1        # IP
	.long	-1                      # ToState
	.section	.text,"xr",one_only,"?insert@array@json@boost@@QEAAPEAVvalue@23@PEBV423@V?$initializer_list@Vvalue_ref@json@boost@@@std@@@Z"
                                        # -- End function
	.def	 "?erase@array@json@boost@@QEAAPEAVvalue@23@PEBV423@@Z";
	.scl	2;
	.type	32;
	.endef
	.section	.text,"xr",one_only,"?erase@array@json@boost@@QEAAPEAVvalue@23@PEBV423@@Z"
	.globl	"?erase@array@json@boost@@QEAAPEAVvalue@23@PEBV423@@Z" # -- Begin function ?erase@array@json@boost@@QEAAPEAVvalue@23@PEBV423@@Z
	.p2align	4, 0x90
"?erase@array@json@boost@@QEAAPEAVvalue@23@PEBV423@@Z": # @"?erase@array@json@boost@@QEAAPEAVvalue@23@PEBV423@@Z"
.seh_proc "?erase@array@json@boost@@QEAAPEAVvalue@23@PEBV423@@Z"
# %bb.0:
	push	rsi
	.seh_pushreg rsi
	push	rdi
	.seh_pushreg rdi
	push	rbx
	.seh_pushreg rbx
	sub	rsp, 32
	.seh_stackalloc 32
	.seh_endprologue
	mov	rsi, rdx
	mov	rdi, rcx
	lea	rbx, [rdx + 24]
	mov	eax, dword ptr [rcx]
	and	eax, 3
	cmp	eax, 2
	je	.LBB26_2
# %bb.1:
	mov	rcx, rsi
	call	"??1value@json@boost@@QEAA@XZ"
.LBB26_2:
	mov	rax, qword ptr [rbx + 16]
	mov	qword ptr [rsi + 16], rax
	movups	xmm0, xmmword ptr [rbx]
	movups	xmmword ptr [rsi], xmm0
	mov	rax, qword ptr [rdi + 16]
	test	rax, rax
	je	.LBB26_4
# %bb.3:
	add	dword ptr [rax], -1
.LBB26_4:
	mov	rax, rsi
	add	rsp, 32
	pop	rbx
	pop	rdi
	pop	rsi
	ret
	.seh_handlerdata
	.section	.text,"xr",one_only,"?erase@array@json@boost@@QEAAPEAVvalue@23@PEBV423@@Z"
	.seh_endproc
                                        # -- End function
	.def	 "?erase@array@json@boost@@QEAAPEAVvalue@23@PEBV423@0@Z";
	.scl	2;
	.type	32;
	.endef
	.section	.text,"xr",one_only,"?erase@array@json@boost@@QEAAPEAVvalue@23@PEBV423@0@Z"
	.globl	"?erase@array@json@boost@@QEAAPEAVvalue@23@PEBV423@0@Z" # -- Begin function ?erase@array@json@boost@@QEAAPEAVvalue@23@PEBV423@0@Z
	.p2align	4, 0x90
"?erase@array@json@boost@@QEAAPEAVvalue@23@PEBV423@0@Z": # @"?erase@array@json@boost@@QEAAPEAVvalue@23@PEBV423@0@Z"
.seh_proc "?erase@array@json@boost@@QEAAPEAVvalue@23@PEBV423@0@Z"
# %bb.0:
	push	r15
	.seh_pushreg r15
	push	r14
	.seh_pushreg r14
	push	r13
	.seh_pushreg r13
	push	r12
	.seh_pushreg r12
	push	rsi
	.seh_pushreg rsi
	push	rdi
	.seh_pushreg rdi
	push	rbx
	.seh_pushreg rbx
	sub	rsp, 32
	.seh_stackalloc 32
	.seh_endprologue
	mov	r14, r8
	mov	r12, rdx
	mov	r13, rcx
	mov	rdx, r8
	sub	rdx, r12
	mov	rbx, rdx
	sar	rbx, 3
	movabs	r15, -6148914691236517205
	imul	rbx, r15
	mov	rax, qword ptr [rcx + 16]
	lea	rcx, [rax + 8]
	test	rax, rax
	cmove	rcx, rax
	test	rdx, rdx
	je	.LBB27_5
# %bb.1:
	mov	rdx, qword ptr [r13]
	and	edx, 3
	cmp	edx, 2
	je	.LBB27_5
# %bb.2:
	mov	rax, r12
	sub	rax, rcx
	sar	rax, 3
	imul	rax, r15
	lea	rdx, [8*rbx]
	lea	rsi, [rdx + 2*rdx]
	lea	rax, [rax + 2*rax]
	lea	rdi, [rcx + 8*rax]
	add	rdi, -24
	.p2align	4, 0x90
.LBB27_3:                               # =>This Inner Loop Header: Depth=1
	lea	rcx, [rdi + rsi]
	call	"??1value@json@boost@@QEAA@XZ"
	add	rsi, -24
	jne	.LBB27_3
# %bb.4:
	mov	rax, qword ptr [r13 + 16]
.LBB27_5:
	test	rax, rax
	je	.LBB27_6
# %bb.7:
	mov	ecx, dword ptr [rax]
	jmp	.LBB27_8
.LBB27_6:
	xor	ecx, ecx
.LBB27_8:
	lea	rdx, [rax + 8]
	test	rax, rax
	cmove	rdx, rax
	mov	rdi, r14
	sub	rdi, rdx
	sar	rdi, 3
	imul	rdi, r15
	sub	rcx, rdi
	je	.LBB27_10
# %bb.9:
	shl	rcx, 3
	lea	r8, [rcx + 2*rcx]
	mov	rcx, r12
	mov	rdx, r14
	call	memmove
	mov	rax, qword ptr [r13 + 16]
.LBB27_10:
	test	rax, rax
	je	.LBB27_12
# %bb.11:
	sub	dword ptr [rax], ebx
.LBB27_12:
	mov	rax, r12
	add	rsp, 32
	pop	rbx
	pop	rdi
	pop	rsi
	pop	r12
	pop	r13
	pop	r14
	pop	r15
	ret
	.seh_handlerdata
	.section	.text,"xr",one_only,"?erase@array@json@boost@@QEAAPEAVvalue@23@PEBV423@0@Z"
	.seh_endproc
                                        # -- End function
	.def	 "?pop_back@array@json@boost@@QEAAXXZ";
	.scl	2;
	.type	32;
	.endef
	.section	.text,"xr",one_only,"?pop_back@array@json@boost@@QEAAXXZ"
	.globl	"?pop_back@array@json@boost@@QEAAXXZ" # -- Begin function ?pop_back@array@json@boost@@QEAAXXZ
	.p2align	4, 0x90
"?pop_back@array@json@boost@@QEAAXXZ":  # @"?pop_back@array@json@boost@@QEAAXXZ"
.seh_proc "?pop_back@array@json@boost@@QEAAXXZ"
# %bb.0:
	push	rsi
	.seh_pushreg rsi
	push	rdi
	.seh_pushreg rdi
	sub	rsp, 40
	.seh_stackalloc 40
	.seh_endprologue
	mov	rdi, rcx
	mov	rax, qword ptr [rcx + 16]
	lea	rcx, [rax + 8]
	test	rax, rax
	cmove	rcx, rax
	je	.LBB28_1
# %bb.2:
	mov	edx, dword ptr [rax]
	add	rdx, -1
	jmp	.LBB28_3
.LBB28_1:
	mov	rdx, -1
.LBB28_3:
	mov	esi, dword ptr [rdi]
	and	esi, 3
	cmp	esi, 2
	je	.LBB28_5
# %bb.4:
	lea	rax, [rdx + 2*rdx]
	lea	rcx, [rcx + 8*rax]
	call	"??1value@json@boost@@QEAA@XZ"
	mov	rax, qword ptr [rdi + 16]
.LBB28_5:
	test	rax, rax
	je	.LBB28_7
# %bb.6:
	add	dword ptr [rax], -1
.LBB28_7:
	add	rsp, 40
	pop	rdi
	pop	rsi
	ret
	.seh_handlerdata
	.section	.text,"xr",one_only,"?pop_back@array@json@boost@@QEAAXXZ"
	.seh_endproc
                                        # -- End function
	.def	 "?resize@array@json@boost@@QEAAX_K@Z";
	.scl	2;
	.type	32;
	.endef
	.section	.text,"xr",one_only,"?resize@array@json@boost@@QEAAX_K@Z"
	.globl	"?resize@array@json@boost@@QEAAX_K@Z" # -- Begin function ?resize@array@json@boost@@QEAAX_K@Z
	.p2align	4, 0x90
"?resize@array@json@boost@@QEAAX_K@Z":  # @"?resize@array@json@boost@@QEAAX_K@Z"
.seh_proc "?resize@array@json@boost@@QEAAX_K@Z"
# %bb.0:
	push	r14
	.seh_pushreg r14
	push	rsi
	.seh_pushreg rsi
	push	rdi
	.seh_pushreg rdi
	push	rbx
	.seh_pushreg rbx
	sub	rsp, 40
	.seh_stackalloc 40
	.seh_endprologue
	mov	r14, rdx
	mov	rdi, rcx
	mov	rax, qword ptr [rcx + 16]
	test	rax, rax
	je	.LBB29_1
# %bb.2:
	mov	ecx, dword ptr [rax]
	cmp	rcx, r14
	jae	.LBB29_4
.LBB29_11:
	test	rax, rax
	je	.LBB29_12
# %bb.13:
	mov	ecx, dword ptr [rax + 4]
	cmp	rcx, r14
	jae	.LBB29_16
.LBB29_15:
	mov	rcx, rdi
	mov	rdx, r14
	call	"?reserve_impl@array@json@boost@@AEAAX_K@Z"
	mov	rax, qword ptr [rdi + 16]
.LBB29_16:
	lea	rcx, [rax + 8]
	test	rax, rax
	cmove	rcx, rax
	je	.LBB29_17
# %bb.18:
	mov	edx, dword ptr [rax]
	cmp	rdx, r14
	jne	.LBB29_20
	jmp	.LBB29_25
.LBB29_1:
	xor	ecx, ecx
	cmp	rcx, r14
	jb	.LBB29_11
.LBB29_4:
	lea	rcx, [rax + 8]
	test	rax, rax
	cmove	rcx, rax
	je	.LBB29_5
# %bb.6:
	mov	edx, dword ptr [rax]
	cmp	rdx, r14
	jne	.LBB29_8
	jmp	.LBB29_25
.LBB29_12:
	xor	ecx, ecx
	cmp	rcx, r14
	jb	.LBB29_15
	jmp	.LBB29_16
.LBB29_17:
	xor	edx, edx
	cmp	rdx, r14
	je	.LBB29_25
.LBB29_20:
	lea	rax, [r14 + 2*r14]
	lea	rax, [rcx + 8*rax]
	lea	rdx, [rdx + 2*rdx]
	lea	rcx, [rcx + 8*rdx]
	jmp	.LBB29_21
	.p2align	4, 0x90
.LBB29_23:                              #   in Loop: Header=BB29_21 Depth=1
	mov	qword ptr [rcx], rbx
	mov	byte ptr [rcx + 8], 7
	add	rcx, 24
	cmp	rcx, rax
	je	.LBB29_24
.LBB29_21:                              # =>This Inner Loop Header: Depth=1
	mov	rbx, qword ptr [rdi]
	test	bl, 1
	je	.LBB29_23
# %bb.22:                               #   in Loop: Header=BB29_21 Depth=1
	mov	rdx, rbx
	and	rdx, -4
	lock		add	qword ptr [rdx + 8], 1
	jmp	.LBB29_23
.LBB29_5:
	xor	edx, edx
	cmp	rdx, r14
	je	.LBB29_25
.LBB29_8:
	mov	rbx, qword ptr [rdi]
	and	ebx, 3
	cmp	ebx, 2
	je	.LBB29_25
# %bb.9:
	lea	rax, [8*r14]
	lea	rsi, [rax + 2*rax]
	shl	rdx, 3
	lea	rax, [rdx + 2*rdx]
	sub	rsi, rax
	lea	rbx, [rcx + rax]
	add	rbx, -24
	.p2align	4, 0x90
.LBB29_10:                              # =>This Inner Loop Header: Depth=1
	mov	rcx, rbx
	call	"??1value@json@boost@@QEAA@XZ"
	add	rbx, -24
	add	rsi, 24
	jne	.LBB29_10
.LBB29_24:
	mov	rax, qword ptr [rdi + 16]
.LBB29_25:
	test	rax, rax
	je	.LBB29_27
# %bb.26:
	mov	dword ptr [rax], r14d
.LBB29_27:
	add	rsp, 40
	pop	rbx
	pop	rdi
	pop	rsi
	pop	r14
	ret
	.seh_handlerdata
	.section	.text,"xr",one_only,"?resize@array@json@boost@@QEAAX_K@Z"
	.seh_endproc
                                        # -- End function
	.def	 "?resize@array@json@boost@@QEAAX_KAEBVvalue@23@@Z";
	.scl	2;
	.type	32;
	.endef
	.section	.text,"xr",one_only,"?resize@array@json@boost@@QEAAX_KAEBVvalue@23@@Z"
	.globl	"?resize@array@json@boost@@QEAAX_KAEBVvalue@23@@Z" # -- Begin function ?resize@array@json@boost@@QEAAX_KAEBVvalue@23@@Z
	.p2align	4, 0x90
"?resize@array@json@boost@@QEAAX_KAEBVvalue@23@@Z": # @"?resize@array@json@boost@@QEAAX_KAEBVvalue@23@@Z"
.Lfunc_begin17:
.seh_proc "?resize@array@json@boost@@QEAAX_KAEBVvalue@23@@Z"
	.seh_handler __CxxFrameHandler3, @unwind, @except
# %bb.0:
	push	rbp
	.seh_pushreg rbp
	push	r14
	.seh_pushreg r14
	push	rsi
	.seh_pushreg rsi
	push	rdi
	.seh_pushreg rdi
	push	rbx
	.seh_pushreg rbx
	sub	rsp, 80
	.seh_stackalloc 80
	lea	rbp, [rsp + 80]
	.seh_setframe rbp, 80
	.seh_endprologue
	mov	qword ptr [rbp - 8], -2
	mov	rdi, r8
	mov	r14, rdx
	mov	qword ptr [rbp - 16], rcx # 8-byte Spill
	mov	rax, qword ptr [rcx + 16]
	test	rax, rax
	je	.LBB30_1
# %bb.2:
	mov	ecx, dword ptr [rax]
	cmp	rcx, r14
	jae	.LBB30_4
.LBB30_11:
	test	rax, rax
	je	.LBB30_12
# %bb.13:
	mov	ecx, dword ptr [rax + 4]
	cmp	rcx, r14
	jae	.LBB30_16
.LBB30_15:
	mov	rsi, qword ptr [rbp - 16] # 8-byte Reload
	mov	rcx, rsi
	mov	rdx, r14
	call	"?reserve_impl@array@json@boost@@AEAAX_K@Z"
	mov	rax, qword ptr [rsi + 16]
.LBB30_16:
	lea	rdx, [rax + 8]
	lea	rsi, [r14 + 2*r14]
	test	rax, rax
	cmove	rdx, rax
	je	.LBB30_17
# %bb.18:
	mov	eax, dword ptr [rax]
	lea	rbx, [rax + 2*rax]
	lea	rcx, [rdx + 8*rbx]
	jmp	.LBB30_19
.LBB30_1:
	xor	ecx, ecx
	cmp	rcx, r14
	jb	.LBB30_11
.LBB30_4:
	lea	rcx, [rax + 8]
	test	rax, rax
	cmove	rcx, rax
	je	.LBB30_5
# %bb.6:
	mov	edx, dword ptr [rax]
	cmp	rdx, r14
	jne	.LBB30_8
	jmp	.LBB30_25
.LBB30_12:
	xor	ecx, ecx
	cmp	rcx, r14
	jb	.LBB30_15
	jmp	.LBB30_16
.LBB30_17:
	xor	ecx, ecx
	xor	eax, eax
.LBB30_19:
	lea	rsi, [rdx + 8*rsi]
	lea	rax, [rax + 2*rax]
	lea	rax, [rdx + 8*rax]
	mov	qword ptr [rbp - 32], rax # 8-byte Spill
	lea	rbx, [rbp - 40]
	.p2align	4, 0x90
.LBB30_20:                              # =>This Inner Loop Header: Depth=1
	mov	rax, qword ptr [rbp - 16] # 8-byte Reload
	mov	rax, qword ptr [rax]
	mov	qword ptr [rbp - 40], rax
	test	al, 1
	je	.LBB30_22
# %bb.21:                               #   in Loop: Header=BB30_20 Depth=1
	and	rax, -4
	lock		add	qword ptr [rax + 8], 1
.LBB30_22:                              #   in Loop: Header=BB30_20 Depth=1
.Ltmp54:
	mov	rdx, rdi
	mov	r8, rbx
	mov	qword ptr [rbp - 24], rcx # 8-byte Spill
	call	"??0value@json@boost@@QEAA@AEBV012@Vstorage_ptr@12@@Z"
.Ltmp55:
# %bb.23:                               #   in Loop: Header=BB30_20 Depth=1
	mov	rcx, qword ptr [rbp - 24] # 8-byte Reload
	add	rcx, 24
	cmp	rsi, rcx
	jne	.LBB30_20
	jmp	.LBB30_24
.LBB30_5:
	xor	edx, edx
	cmp	rdx, r14
	je	.LBB30_25
.LBB30_8:
	mov	rbx, qword ptr [rbp - 16] # 8-byte Reload
	mov	rbx, qword ptr [rbx]
	and	ebx, 3
	cmp	ebx, 2
	je	.LBB30_25
# %bb.9:
	lea	rax, [8*r14]
	lea	rsi, [rax + 2*rax]
	shl	rdx, 3
	lea	rax, [rdx + 2*rdx]
	sub	rsi, rax
	lea	rdi, [rcx + rax]
	add	rdi, -24
	.p2align	4, 0x90
.LBB30_10:                              # =>This Inner Loop Header: Depth=1
	mov	rcx, rdi
	call	"??1value@json@boost@@QEAA@XZ"
	add	rdi, -24
	add	rsi, 24
	jne	.LBB30_10
.LBB30_24:
	mov	rax, qword ptr [rbp - 16] # 8-byte Reload
	mov	rax, qword ptr [rax + 16]
.LBB30_25:
	test	rax, rax
	je	.LBB30_27
# %bb.26:
	mov	dword ptr [rax], r14d
.LBB30_27:
	add	rsp, 80
	pop	rbx
	pop	rdi
	pop	rsi
	pop	r14
	pop	rbp
	ret
	.seh_handlerdata
	.long	("$cppxdata$?resize@array@json@boost@@QEAAX_KAEBVvalue@23@@Z")@IMGREL
	.section	.text,"xr",one_only,"?resize@array@json@boost@@QEAAX_KAEBVvalue@23@@Z"
	.seh_endproc
	.def	 "?dtor$28@?0??resize@array@json@boost@@QEAAX_KAEBVvalue@23@@Z@4HA";
	.scl	3;
	.type	32;
	.endef
	.p2align	4, 0x90
"?dtor$28@?0??resize@array@json@boost@@QEAAX_KAEBVvalue@23@@Z@4HA":
.seh_proc "?dtor$28@?0??resize@array@json@boost@@QEAAX_KAEBVvalue@23@@Z@4HA"
.LBB30_28:
	mov	qword ptr [rsp + 16], rdx
	push	rbp
	.seh_pushreg rbp
	push	r14
	.seh_pushreg r14
	push	rsi
	.seh_pushreg rsi
	push	rdi
	.seh_pushreg rdi
	push	rbx
	.seh_pushreg rbx
	sub	rsp, 32
	.seh_stackalloc 32
	lea	rbp, [rdx + 80]
	.seh_endprologue
	mov	rsi, qword ptr [rbp - 24] # 8-byte Reload
	test	rsi, rsi
	mov	rdi, qword ptr [rbp - 32] # 8-byte Reload
	je	.LBB30_32
# %bb.29:
	cmp	rdi, rsi
	je	.LBB30_32
# %bb.30:
	mov	rax, qword ptr [rbp - 16] # 8-byte Reload
	mov	rax, qword ptr [rax]
	and	eax, 3
	cmp	eax, 2
	je	.LBB30_32
.LBB30_31:                              # =>This Inner Loop Header: Depth=1
	add	rsi, -24
	mov	rcx, rsi
	call	"??1value@json@boost@@QEAA@XZ"
	cmp	rdi, rsi
	jne	.LBB30_31
.LBB30_32:
	add	rsp, 32
	pop	rbx
	pop	rdi
	pop	rsi
	pop	r14
	pop	rbp
	ret                             # CLEANUPRET
.Lfunc_end17:
	.seh_handlerdata
	.section	.text,"xr",one_only,"?resize@array@json@boost@@QEAAX_KAEBVvalue@23@@Z"
	.seh_endproc
	.section	.xdata,"dr",associative,"?resize@array@json@boost@@QEAAX_KAEBVvalue@23@@Z"
	.p2align	2
"$cppxdata$?resize@array@json@boost@@QEAAX_KAEBVvalue@23@@Z":
	.long	429065506               # MagicNumber
	.long	1                       # MaxState
	.long	("$stateUnwindMap$?resize@array@json@boost@@QEAAX_KAEBVvalue@23@@Z")@IMGREL # UnwindMap
	.long	0                       # NumTryBlocks
	.long	0                       # TryBlockMap
	.long	3                       # IPMapEntries
	.long	("$ip2state$?resize@array@json@boost@@QEAAX_KAEBVvalue@23@@Z")@IMGREL # IPToStateXData
	.long	72                      # UnwindHelp
	.long	0                       # ESTypeList
	.long	1                       # EHFlags
"$stateUnwindMap$?resize@array@json@boost@@QEAAX_KAEBVvalue@23@@Z":
	.long	-1                      # ToState
	.long	"?dtor$28@?0??resize@array@json@boost@@QEAAX_KAEBVvalue@23@@Z@4HA"@IMGREL # Action
"$ip2state$?resize@array@json@boost@@QEAAX_KAEBVvalue@23@@Z":
	.long	.Lfunc_begin17@IMGREL   # IP
	.long	-1                      # ToState
	.long	.Ltmp54@IMGREL+1        # IP
	.long	0                       # ToState
	.long	.Ltmp55@IMGREL+1        # IP
	.long	-1                      # ToState
	.section	.text,"xr",one_only,"?resize@array@json@boost@@QEAAX_KAEBVvalue@23@@Z"
                                        # -- End function
	.def	 "?swap@array@json@boost@@QEAAXAEAV123@@Z";
	.scl	2;
	.type	32;
	.endef
	.section	.text,"xr",one_only,"?swap@array@json@boost@@QEAAXAEAV123@@Z"
	.globl	"?swap@array@json@boost@@QEAAXAEAV123@@Z" # -- Begin function ?swap@array@json@boost@@QEAAXAEAV123@@Z
	.p2align	4, 0x90
"?swap@array@json@boost@@QEAAXAEAV123@@Z": # @"?swap@array@json@boost@@QEAAXAEAV123@@Z"
.Lfunc_begin18:
.seh_proc "?swap@array@json@boost@@QEAAXAEAV123@@Z"
	.seh_handler __CxxFrameHandler3, @unwind, @except
# %bb.0:
	push	rbp
	.seh_pushreg rbp
	push	r14
	.seh_pushreg r14
	push	rsi
	.seh_pushreg rsi
	push	rdi
	.seh_pushreg rdi
	push	rbx
	.seh_pushreg rbx
	sub	rsp, 112
	.seh_stackalloc 112
	lea	rbp, [rsp + 112]
	.seh_setframe rbp, 112
	.seh_endprologue
	mov	qword ptr [rbp - 8], -2
	mov	r14, rdx
	mov	rdi, rcx
	mov	rbx, qword ptr [rdx]
	test	rbx, rbx
	je	.LBB31_2
# %bb.1:
	and	rbx, -4
	jmp	.LBB31_5
.LBB31_2:
	mov	eax, dword ptr [rip + "?$TSS0@?1??get_default@storage_ptr@json@boost@@CAPEAVmemory_resource@pmr@container@3@XZ@4HA"]
	mov	ecx, dword ptr [rip + _tls_index]
	mov	rdx, qword ptr gs:[88]
	mov	rcx, qword ptr [rdx + 8*rcx]
	lea	rbx, [rip + "?impl@?1??get_default@storage_ptr@json@boost@@CAPEAVmemory_resource@pmr@container@4@XZ@4Vdefault_resource@detail@34@A"]
	cmp	eax, dword ptr [rcx + _Init_thread_epoch@SECREL32]
	jg	.LBB31_3
.LBB31_5:
	mov	rsi, qword ptr [rdi]
	test	rsi, rsi
	je	.LBB31_7
# %bb.6:
	and	rsi, -4
	jmp	.LBB31_10
.LBB31_7:
	mov	eax, dword ptr [rip + "?$TSS0@?1??get_default@storage_ptr@json@boost@@CAPEAVmemory_resource@pmr@container@3@XZ@4HA"]
	mov	ecx, dword ptr [rip + _tls_index]
	mov	rdx, qword ptr gs:[88]
	mov	rcx, qword ptr [rdx + 8*rcx]
	lea	rsi, [rip + "?impl@?1??get_default@storage_ptr@json@boost@@CAPEAVmemory_resource@pmr@container@4@XZ@4Vdefault_resource@detail@34@A"]
	cmp	eax, dword ptr [rcx + _Init_thread_epoch@SECREL32]
	jg	.LBB31_8
.LBB31_10:
	cmp	rsi, rbx
	je	.LBB31_12
# %bb.11:
	mov	rax, qword ptr [rsi]
	mov	rcx, rsi
	mov	rdx, rbx
	call	qword ptr [rax + 24]
	test	al, al
	je	.LBB31_13
.LBB31_12:
	mov	rax, qword ptr [rdi + 16]
	mov	rcx, qword ptr [r14 + 16]
	mov	qword ptr [rdi + 16], rcx
	mov	qword ptr [r14 + 16], rax
.LBB31_94:
	add	rsp, 112
	pop	rbx
	pop	rdi
	pop	rsi
	pop	r14
	pop	rbp
	ret
.LBB31_13:
	mov	rax, qword ptr [r14]
	mov	qword ptr [rbp - 72], rax
	test	al, 1
	je	.LBB31_15
# %bb.14:
	and	rax, -4
	lock		add	qword ptr [rax + 8], 1
.LBB31_15:
	lea	rcx, [rbp - 32]
	lea	r8, [rbp - 72]
	mov	rdx, rdi
	call	"??0array@json@boost@@QEAA@$$QEAV012@Vstorage_ptr@12@@Z"
	mov	rax, qword ptr [rdi]
	mov	qword ptr [rbp - 64], rax
	test	al, 1
	je	.LBB31_17
# %bb.16:
	and	rax, -4
	lock		add	qword ptr [rax + 8], 1
.LBB31_17:
.Ltmp56:
	lea	rcx, [rbp - 56]
	lea	r8, [rbp - 64]
	mov	rdx, r14
	call	"??0array@json@boost@@QEAA@$$QEAV012@Vstorage_ptr@12@@Z"
.Ltmp57:
# %bb.18:
	mov	rax, qword ptr [rdi + 16]
	test	rax, rax
	je	.LBB31_33
# %bb.19:
	mov	rbx, qword ptr [rdi]
	mov	ecx, ebx
	and	ecx, 3
	cmp	ecx, 2
	je	.LBB31_33
# %bb.20:
	mov	ecx, dword ptr [rax]
	test	rcx, rcx
	je	.LBB31_24
# %bb.21:
	lea	rcx, [rcx + 2*rcx]
	lea	rsi, [rax + 8*rcx]
	add	rsi, 8
	.p2align	4, 0x90
.LBB31_22:                              # =>This Inner Loop Header: Depth=1
	add	rsi, -24
	mov	rcx, rsi
	call	"??1value@json@boost@@QEAA@XZ"
	mov	rax, qword ptr [rdi + 16]
	lea	rcx, [rax + 8]
	test	rax, rax
	cmove	rcx, rax
	cmp	rsi, rcx
	jne	.LBB31_22
# %bb.23:
	mov	rbx, qword ptr [rdi]
.LBB31_24:
	test	rbx, rbx
	je	.LBB31_26
# %bb.25:
	and	rbx, -4
	jmp	.LBB31_29
.LBB31_26:
	mov	eax, dword ptr [rip + "?$TSS0@?1??get_default@storage_ptr@json@boost@@CAPEAVmemory_resource@pmr@container@3@XZ@4HA"]
	mov	ecx, dword ptr [rip + _tls_index]
	mov	rdx, qword ptr gs:[88]
	mov	rcx, qword ptr [rdx + 8*rcx]
	lea	rbx, [rip + "?impl@?1??get_default@storage_ptr@json@boost@@CAPEAVmemory_resource@pmr@container@4@XZ@4Vdefault_resource@detail@34@A"]
	cmp	eax, dword ptr [rcx + _Init_thread_epoch@SECREL32]
	jg	.LBB31_27
.LBB31_29:
	mov	rdx, qword ptr [rdi + 16]
	test	rdx, rdx
	je	.LBB31_30
# %bb.31:
	mov	eax, dword ptr [rdx + 4]
	lea	rax, [rax + 2*rax]
	lea	rax, [8*rax + 17]
	movabs	r8, 274877906936
	and	r8, rax
	jmp	.LBB31_32
.LBB31_30:
	mov	r8d, 16
.LBB31_32:
	mov	rax, qword ptr [rbx]
.Ltmp58:
	mov	r9d, 8
	mov	rcx, rbx
	call	qword ptr [rax + 16]
.Ltmp59:
.LBB31_33:
	mov	rcx, qword ptr [rdi]
	test	cl, 1
	je	.LBB31_37
# %bb.34:
	and	rcx, -4
	mov	rax, -1
	lock		xadd	qword ptr [rcx + 8], rax
	test	rcx, rcx
	je	.LBB31_37
# %bb.35:
	cmp	rax, 1
	jne	.LBB31_37
# %bb.36:
	mov	rax, qword ptr [rcx]
	mov	edx, 1
	call	qword ptr [rax]
.LBB31_37:
	mov	rax, qword ptr [rbp - 56]
	mov	qword ptr [rdi], rax
	mov	qword ptr [rbp - 56], 0
	mov	byte ptr [rdi + 8], 0
	mov	rax, qword ptr [rbp - 40]
	mov	qword ptr [rbp - 40], 0
	mov	qword ptr [rdi + 16], rax
	mov	rax, qword ptr [r14 + 16]
	test	rax, rax
	je	.LBB31_52
# %bb.38:
	mov	rdi, qword ptr [r14]
	mov	ecx, edi
	and	ecx, 3
	cmp	ecx, 2
	je	.LBB31_52
# %bb.39:
	mov	ecx, dword ptr [rax]
	test	rcx, rcx
	je	.LBB31_43
# %bb.40:
	lea	rcx, [rcx + 2*rcx]
	lea	rsi, [rax + 8*rcx]
	add	rsi, 8
	.p2align	4, 0x90
.LBB31_41:                              # =>This Inner Loop Header: Depth=1
	add	rsi, -24
	mov	rcx, rsi
	call	"??1value@json@boost@@QEAA@XZ"
	mov	rax, qword ptr [r14 + 16]
	lea	rcx, [rax + 8]
	test	rax, rax
	cmove	rcx, rax
	cmp	rsi, rcx
	jne	.LBB31_41
# %bb.42:
	mov	rdi, qword ptr [r14]
.LBB31_43:
	test	rdi, rdi
	je	.LBB31_45
# %bb.44:
	and	rdi, -4
	jmp	.LBB31_48
.LBB31_45:
	mov	eax, dword ptr [rip + "?$TSS0@?1??get_default@storage_ptr@json@boost@@CAPEAVmemory_resource@pmr@container@3@XZ@4HA"]
	mov	ecx, dword ptr [rip + _tls_index]
	mov	rdx, qword ptr gs:[88]
	mov	rcx, qword ptr [rdx + 8*rcx]
	lea	rdi, [rip + "?impl@?1??get_default@storage_ptr@json@boost@@CAPEAVmemory_resource@pmr@container@4@XZ@4Vdefault_resource@detail@34@A"]
	cmp	eax, dword ptr [rcx + _Init_thread_epoch@SECREL32]
	jg	.LBB31_46
.LBB31_48:
	mov	rdx, qword ptr [r14 + 16]
	test	rdx, rdx
	je	.LBB31_49
# %bb.50:
	mov	eax, dword ptr [rdx + 4]
	lea	rax, [rax + 2*rax]
	lea	rax, [8*rax + 17]
	movabs	r8, 274877906936
	and	r8, rax
	jmp	.LBB31_51
.LBB31_49:
	mov	r8d, 16
.LBB31_51:
	mov	rax, qword ptr [rdi]
.Ltmp60:
	mov	r9d, 8
	mov	rcx, rdi
	call	qword ptr [rax + 16]
.Ltmp61:
.LBB31_52:
	mov	rcx, qword ptr [r14]
	test	cl, 1
	je	.LBB31_56
# %bb.53:
	and	rcx, -4
	mov	rax, -1
	lock		xadd	qword ptr [rcx + 8], rax
	test	rcx, rcx
	je	.LBB31_56
# %bb.54:
	cmp	rax, 1
	jne	.LBB31_56
# %bb.55:
	mov	rax, qword ptr [rcx]
	mov	edx, 1
	call	qword ptr [rax]
.LBB31_56:
	mov	rax, qword ptr [rbp - 32]
	mov	qword ptr [r14], rax
	mov	qword ptr [rbp - 32], 0
	mov	byte ptr [r14 + 8], 0
	mov	rax, qword ptr [rbp - 16]
	mov	qword ptr [rbp - 16], 0
	mov	qword ptr [r14 + 16], rax
	mov	rax, qword ptr [rbp - 40]
	test	rax, rax
	je	.LBB31_71
# %bb.57:
	mov	rsi, qword ptr [rbp - 56]
	mov	ecx, esi
	and	ecx, 3
	cmp	ecx, 2
	je	.LBB31_71
# %bb.58:
	mov	ecx, dword ptr [rax]
	test	rcx, rcx
	je	.LBB31_62
# %bb.59:
	lea	rcx, [rcx + 2*rcx]
	lea	rsi, [rax + 8*rcx]
	add	rsi, 8
	.p2align	4, 0x90
.LBB31_60:                              # =>This Inner Loop Header: Depth=1
	add	rsi, -24
	mov	rcx, rsi
	call	"??1value@json@boost@@QEAA@XZ"
	mov	rax, qword ptr [rbp - 40]
	lea	rcx, [rax + 8]
	test	rax, rax
	cmove	rcx, rax
	cmp	rsi, rcx
	jne	.LBB31_60
# %bb.61:
	mov	rsi, qword ptr [rbp - 56]
.LBB31_62:
	test	rsi, rsi
	je	.LBB31_64
# %bb.63:
	and	rsi, -4
	jmp	.LBB31_67
.LBB31_64:
	mov	eax, dword ptr [rip + "?$TSS0@?1??get_default@storage_ptr@json@boost@@CAPEAVmemory_resource@pmr@container@3@XZ@4HA"]
	mov	ecx, dword ptr [rip + _tls_index]
	mov	rdx, qword ptr gs:[88]
	mov	rcx, qword ptr [rdx + 8*rcx]
	lea	rsi, [rip + "?impl@?1??get_default@storage_ptr@json@boost@@CAPEAVmemory_resource@pmr@container@4@XZ@4Vdefault_resource@detail@34@A"]
	cmp	eax, dword ptr [rcx + _Init_thread_epoch@SECREL32]
	jg	.LBB31_65
.LBB31_67:
	mov	rdx, qword ptr [rbp - 40]
	test	rdx, rdx
	je	.LBB31_68
# %bb.69:
	mov	eax, dword ptr [rdx + 4]
	lea	rax, [rax + 2*rax]
	lea	rax, [8*rax + 17]
	movabs	r8, 274877906936
	and	r8, rax
	jmp	.LBB31_70
.LBB31_68:
	mov	r8d, 16
.LBB31_70:
	mov	rax, qword ptr [rsi]
.Ltmp62:
	mov	r9d, 8
	mov	rcx, rsi
	call	qword ptr [rax + 16]
.Ltmp63:
.LBB31_71:
	mov	rcx, qword ptr [rbp - 56]
	test	cl, 1
	je	.LBB31_75
# %bb.72:
	and	rcx, -4
	mov	rax, -1
	lock		xadd	qword ptr [rcx + 8], rax
	test	rcx, rcx
	je	.LBB31_75
# %bb.73:
	cmp	rax, 1
	jne	.LBB31_75
# %bb.74:
	mov	rax, qword ptr [rcx]
	mov	edx, 1
	call	qword ptr [rax]
.LBB31_75:
	mov	rax, qword ptr [rbp - 16]
	test	rax, rax
	je	.LBB31_90
# %bb.76:
	mov	rsi, qword ptr [rbp - 32]
	mov	ecx, esi
	and	ecx, 3
	cmp	ecx, 2
	je	.LBB31_90
# %bb.77:
	mov	ecx, dword ptr [rax]
	test	rcx, rcx
	je	.LBB31_81
# %bb.78:
	lea	rcx, [rcx + 2*rcx]
	lea	rsi, [rax + 8*rcx]
	add	rsi, 8
	.p2align	4, 0x90
.LBB31_79:                              # =>This Inner Loop Header: Depth=1
	add	rsi, -24
	mov	rcx, rsi
	call	"??1value@json@boost@@QEAA@XZ"
	mov	rax, qword ptr [rbp - 16]
	lea	rcx, [rax + 8]
	test	rax, rax
	cmove	rcx, rax
	cmp	rsi, rcx
	jne	.LBB31_79
# %bb.80:
	mov	rsi, qword ptr [rbp - 32]
.LBB31_81:
	test	rsi, rsi
	je	.LBB31_83
# %bb.82:
	and	rsi, -4
	jmp	.LBB31_86
.LBB31_83:
	mov	eax, dword ptr [rip + "?$TSS0@?1??get_default@storage_ptr@json@boost@@CAPEAVmemory_resource@pmr@container@3@XZ@4HA"]
	mov	ecx, dword ptr [rip + _tls_index]
	mov	rdx, qword ptr gs:[88]
	mov	rcx, qword ptr [rdx + 8*rcx]
	lea	rsi, [rip + "?impl@?1??get_default@storage_ptr@json@boost@@CAPEAVmemory_resource@pmr@container@4@XZ@4Vdefault_resource@detail@34@A"]
	cmp	eax, dword ptr [rcx + _Init_thread_epoch@SECREL32]
	jg	.LBB31_84
.LBB31_86:
	mov	rdx, qword ptr [rbp - 16]
	test	rdx, rdx
	je	.LBB31_87
# %bb.88:
	mov	eax, dword ptr [rdx + 4]
	lea	rax, [rax + 2*rax]
	lea	rax, [8*rax + 17]
	movabs	r8, 274877906936
	and	r8, rax
	jmp	.LBB31_89
.LBB31_87:
	mov	r8d, 16
.LBB31_89:
	mov	rax, qword ptr [rsi]
.Ltmp64:
	mov	r9d, 8
	mov	rcx, rsi
	call	qword ptr [rax + 16]
.Ltmp65:
.LBB31_90:
	mov	rcx, qword ptr [rbp - 32]
	test	cl, 1
	je	.LBB31_94
# %bb.91:
	and	rcx, -4
	mov	rax, -1
	lock		xadd	qword ptr [rcx + 8], rax
	test	rcx, rcx
	je	.LBB31_94
# %bb.92:
	cmp	rax, 1
	jne	.LBB31_94
# %bb.93:
	mov	rax, qword ptr [rcx]
	mov	edx, 1
	call	qword ptr [rax]
	jmp	.LBB31_94
.LBB31_3:
	lea	rcx, [rip + "?$TSS0@?1??get_default@storage_ptr@json@boost@@CAPEAVmemory_resource@pmr@container@3@XZ@4HA"]
	call	_Init_thread_header
	cmp	dword ptr [rip + "?$TSS0@?1??get_default@storage_ptr@json@boost@@CAPEAVmemory_resource@pmr@container@3@XZ@4HA"], -1
	jne	.LBB31_5
# %bb.4:
	lea	rcx, [rip + "??__Fimpl@?1??get_default@storage_ptr@json@boost@@CAPEAVmemory_resource@pmr@container@4@XZ@YAXXZ"]
	call	atexit
	lea	rcx, [rip + "?$TSS0@?1??get_default@storage_ptr@json@boost@@CAPEAVmemory_resource@pmr@container@3@XZ@4HA"]
	call	_Init_thread_footer
	jmp	.LBB31_5
.LBB31_8:
	lea	rcx, [rip + "?$TSS0@?1??get_default@storage_ptr@json@boost@@CAPEAVmemory_resource@pmr@container@3@XZ@4HA"]
	call	_Init_thread_header
	cmp	dword ptr [rip + "?$TSS0@?1??get_default@storage_ptr@json@boost@@CAPEAVmemory_resource@pmr@container@3@XZ@4HA"], -1
	jne	.LBB31_10
# %bb.9:
	lea	rcx, [rip + "??__Fimpl@?1??get_default@storage_ptr@json@boost@@CAPEAVmemory_resource@pmr@container@4@XZ@YAXXZ"]
	call	atexit
	lea	rcx, [rip + "?$TSS0@?1??get_default@storage_ptr@json@boost@@CAPEAVmemory_resource@pmr@container@3@XZ@4HA"]
	call	_Init_thread_footer
	jmp	.LBB31_10
.LBB31_27:
	lea	rcx, [rip + "?$TSS0@?1??get_default@storage_ptr@json@boost@@CAPEAVmemory_resource@pmr@container@3@XZ@4HA"]
	call	_Init_thread_header
	cmp	dword ptr [rip + "?$TSS0@?1??get_default@storage_ptr@json@boost@@CAPEAVmemory_resource@pmr@container@3@XZ@4HA"], -1
	jne	.LBB31_29
# %bb.28:
	lea	rcx, [rip + "??__Fimpl@?1??get_default@storage_ptr@json@boost@@CAPEAVmemory_resource@pmr@container@4@XZ@YAXXZ"]
	call	atexit
	lea	rcx, [rip + "?$TSS0@?1??get_default@storage_ptr@json@boost@@CAPEAVmemory_resource@pmr@container@3@XZ@4HA"]
	call	_Init_thread_footer
	jmp	.LBB31_29
.LBB31_46:
	lea	rcx, [rip + "?$TSS0@?1??get_default@storage_ptr@json@boost@@CAPEAVmemory_resource@pmr@container@3@XZ@4HA"]
	call	_Init_thread_header
	cmp	dword ptr [rip + "?$TSS0@?1??get_default@storage_ptr@json@boost@@CAPEAVmemory_resource@pmr@container@3@XZ@4HA"], -1
	jne	.LBB31_48
# %bb.47:
	lea	rcx, [rip + "??__Fimpl@?1??get_default@storage_ptr@json@boost@@CAPEAVmemory_resource@pmr@container@4@XZ@YAXXZ"]
	call	atexit
	lea	rcx, [rip + "?$TSS0@?1??get_default@storage_ptr@json@boost@@CAPEAVmemory_resource@pmr@container@3@XZ@4HA"]
	call	_Init_thread_footer
	jmp	.LBB31_48
.LBB31_65:
	lea	rcx, [rip + "?$TSS0@?1??get_default@storage_ptr@json@boost@@CAPEAVmemory_resource@pmr@container@3@XZ@4HA"]
	call	_Init_thread_header
	cmp	dword ptr [rip + "?$TSS0@?1??get_default@storage_ptr@json@boost@@CAPEAVmemory_resource@pmr@container@3@XZ@4HA"], -1
	jne	.LBB31_67
# %bb.66:
	lea	rcx, [rip + "??__Fimpl@?1??get_default@storage_ptr@json@boost@@CAPEAVmemory_resource@pmr@container@4@XZ@YAXXZ"]
	call	atexit
	lea	rcx, [rip + "?$TSS0@?1??get_default@storage_ptr@json@boost@@CAPEAVmemory_resource@pmr@container@3@XZ@4HA"]
	call	_Init_thread_footer
	jmp	.LBB31_67
.LBB31_84:
	lea	rcx, [rip + "?$TSS0@?1??get_default@storage_ptr@json@boost@@CAPEAVmemory_resource@pmr@container@3@XZ@4HA"]
	call	_Init_thread_header
	cmp	dword ptr [rip + "?$TSS0@?1??get_default@storage_ptr@json@boost@@CAPEAVmemory_resource@pmr@container@3@XZ@4HA"], -1
	jne	.LBB31_86
# %bb.85:
	lea	rcx, [rip + "??__Fimpl@?1??get_default@storage_ptr@json@boost@@CAPEAVmemory_resource@pmr@container@4@XZ@YAXXZ"]
	call	atexit
	lea	rcx, [rip + "?$TSS0@?1??get_default@storage_ptr@json@boost@@CAPEAVmemory_resource@pmr@container@3@XZ@4HA"]
	call	_Init_thread_footer
	jmp	.LBB31_86
	.seh_handlerdata
	.long	("$cppxdata$?swap@array@json@boost@@QEAAXAEAV123@@Z")@IMGREL
	.section	.text,"xr",one_only,"?swap@array@json@boost@@QEAAXAEAV123@@Z"
	.seh_endproc
	.def	 "?dtor$95@?0??swap@array@json@boost@@QEAAXAEAV123@@Z@4HA";
	.scl	3;
	.type	32;
	.endef
	.p2align	4, 0x90
"?dtor$95@?0??swap@array@json@boost@@QEAAXAEAV123@@Z@4HA":
.seh_proc "?dtor$95@?0??swap@array@json@boost@@QEAAXAEAV123@@Z@4HA"
.LBB31_95:
	mov	qword ptr [rsp + 16], rdx
	push	rbp
	.seh_pushreg rbp
	push	r14
	.seh_pushreg r14
	push	rsi
	.seh_pushreg rsi
	push	rdi
	.seh_pushreg rdi
	push	rbx
	.seh_pushreg rbx
	sub	rsp, 32
	.seh_stackalloc 32
	lea	rbp, [rdx + 112]
	.seh_endprologue
	mov	rax, qword ptr [rbp - 16]
	test	rax, rax
	je	.LBB31_110
# %bb.96:
	mov	rsi, qword ptr [rbp - 32]
	mov	ecx, esi
	and	ecx, 3
	cmp	ecx, 2
	je	.LBB31_110
# %bb.97:
	mov	ecx, dword ptr [rax]
	test	rcx, rcx
	je	.LBB31_101
# %bb.98:
	lea	rcx, [rcx + 2*rcx]
	lea	rsi, [rax + 8*rcx]
	add	rsi, -16
.LBB31_99:                              # =>This Inner Loop Header: Depth=1
	mov	rcx, rsi
	call	"??1value@json@boost@@QEAA@XZ"
	mov	rax, qword ptr [rbp - 16]
	lea	rcx, [rax + 8]
	test	rax, rax
	cmove	rcx, rax
	cmp	rsi, rcx
	lea	rsi, [rsi - 24]
	jne	.LBB31_99
# %bb.100:
	mov	rsi, qword ptr [rbp - 32]
.LBB31_101:
	test	rsi, rsi
	je	.LBB31_103
# %bb.102:
	and	rsi, -4
	jmp	.LBB31_106
.LBB31_103:
	mov	eax, dword ptr [rip + "?$TSS0@?1??get_default@storage_ptr@json@boost@@CAPEAVmemory_resource@pmr@container@3@XZ@4HA"]
	mov	ecx, dword ptr [rip + _tls_index]
	mov	rdx, qword ptr gs:[88]
	mov	rcx, qword ptr [rdx + 8*rcx]
	lea	rsi, [rip + "?impl@?1??get_default@storage_ptr@json@boost@@CAPEAVmemory_resource@pmr@container@4@XZ@4Vdefault_resource@detail@34@A"]
	cmp	eax, dword ptr [rcx + _Init_thread_epoch@SECREL32]
	jg	.LBB31_104
.LBB31_106:
	mov	rdx, qword ptr [rbp - 16]
	test	rdx, rdx
	je	.LBB31_107
# %bb.108:
	mov	eax, dword ptr [rdx + 4]
	lea	rax, [rax + 2*rax]
	lea	rax, [8*rax + 17]
	movabs	r8, 274877906936
	and	r8, rax
	jmp	.LBB31_109
.LBB31_107:
	mov	r8d, 16
.LBB31_109:
	mov	rax, qword ptr [rsi]
	mov	r9d, 8
	mov	rcx, rsi
	call	qword ptr [rax + 16]
.LBB31_110:
	mov	rcx, qword ptr [rbp - 32]
	test	cl, 1
	je	.LBB31_114
# %bb.111:
	and	rcx, -4
	mov	rax, -1
	lock		xadd	qword ptr [rcx + 8], rax
	test	rcx, rcx
	je	.LBB31_114
# %bb.112:
	cmp	rax, 1
	jne	.LBB31_114
# %bb.113:
	mov	rax, qword ptr [rcx]
	mov	edx, 1
	call	qword ptr [rax]
.LBB31_114:
	nop
	add	rsp, 32
	pop	rbx
	pop	rdi
	pop	rsi
	pop	r14
	pop	rbp
	ret                             # CLEANUPRET
.LBB31_104:
	lea	rcx, [rip + "?$TSS0@?1??get_default@storage_ptr@json@boost@@CAPEAVmemory_resource@pmr@container@3@XZ@4HA"]
	call	_Init_thread_header
	cmp	dword ptr [rip + "?$TSS0@?1??get_default@storage_ptr@json@boost@@CAPEAVmemory_resource@pmr@container@3@XZ@4HA"], -1
	jne	.LBB31_106
# %bb.105:
	lea	rcx, [rip + "??__Fimpl@?1??get_default@storage_ptr@json@boost@@CAPEAVmemory_resource@pmr@container@4@XZ@YAXXZ"]
	call	atexit
	lea	rcx, [rip + "?$TSS0@?1??get_default@storage_ptr@json@boost@@CAPEAVmemory_resource@pmr@container@3@XZ@4HA"]
	call	_Init_thread_footer
	jmp	.LBB31_106
	.seh_handlerdata
	.section	.text,"xr",one_only,"?swap@array@json@boost@@QEAAXAEAV123@@Z"
	.seh_endproc
	.def	 "?dtor$115@?0??swap@array@json@boost@@QEAAXAEAV123@@Z@4HA";
	.scl	3;
	.type	32;
	.endef
	.p2align	4, 0x90
"?dtor$115@?0??swap@array@json@boost@@QEAAXAEAV123@@Z@4HA":
.seh_proc "?dtor$115@?0??swap@array@json@boost@@QEAAXAEAV123@@Z@4HA"
.LBB31_115:
	mov	qword ptr [rsp + 16], rdx
	push	rbp
	.seh_pushreg rbp
	push	r14
	.seh_pushreg r14
	push	rsi
	.seh_pushreg rsi
	push	rdi
	.seh_pushreg rdi
	push	rbx
	.seh_pushreg rbx
	sub	rsp, 32
	.seh_stackalloc 32
	lea	rbp, [rdx + 112]
	.seh_endprologue
	call	__std_terminate
	int3
	.seh_handlerdata
	.section	.text,"xr",one_only,"?swap@array@json@boost@@QEAAXAEAV123@@Z"
	.seh_endproc
	.def	 "?dtor$116@?0??swap@array@json@boost@@QEAAXAEAV123@@Z@4HA";
	.scl	3;
	.type	32;
	.endef
	.p2align	4, 0x90
"?dtor$116@?0??swap@array@json@boost@@QEAAXAEAV123@@Z@4HA":
.seh_proc "?dtor$116@?0??swap@array@json@boost@@QEAAXAEAV123@@Z@4HA"
.LBB31_116:
	mov	qword ptr [rsp + 16], rdx
	push	rbp
	.seh_pushreg rbp
	push	r14
	.seh_pushreg r14
	push	rsi
	.seh_pushreg rsi
	push	rdi
	.seh_pushreg rdi
	push	rbx
	.seh_pushreg rbx
	sub	rsp, 32
	.seh_stackalloc 32
	lea	rbp, [rdx + 112]
	.seh_endprologue
	call	__std_terminate
	int3
	.seh_handlerdata
	.section	.text,"xr",one_only,"?swap@array@json@boost@@QEAAXAEAV123@@Z"
	.seh_endproc
	.def	 "?dtor$117@?0??swap@array@json@boost@@QEAAXAEAV123@@Z@4HA";
	.scl	3;
	.type	32;
	.endef
	.p2align	4, 0x90
"?dtor$117@?0??swap@array@json@boost@@QEAAXAEAV123@@Z@4HA":
.seh_proc "?dtor$117@?0??swap@array@json@boost@@QEAAXAEAV123@@Z@4HA"
.LBB31_117:
	mov	qword ptr [rsp + 16], rdx
	push	rbp
	.seh_pushreg rbp
	push	r14
	.seh_pushreg r14
	push	rsi
	.seh_pushreg rsi
	push	rdi
	.seh_pushreg rdi
	push	rbx
	.seh_pushreg rbx
	sub	rsp, 32
	.seh_stackalloc 32
	lea	rbp, [rdx + 112]
	.seh_endprologue
	call	__std_terminate
	int3
	.seh_handlerdata
	.section	.text,"xr",one_only,"?swap@array@json@boost@@QEAAXAEAV123@@Z"
	.seh_endproc
	.def	 "?dtor$118@?0??swap@array@json@boost@@QEAAXAEAV123@@Z@4HA";
	.scl	3;
	.type	32;
	.endef
	.p2align	4, 0x90
"?dtor$118@?0??swap@array@json@boost@@QEAAXAEAV123@@Z@4HA":
.seh_proc "?dtor$118@?0??swap@array@json@boost@@QEAAXAEAV123@@Z@4HA"
.LBB31_118:
	mov	qword ptr [rsp + 16], rdx
	push	rbp
	.seh_pushreg rbp
	push	r14
	.seh_pushreg r14
	push	rsi
	.seh_pushreg rsi
	push	rdi
	.seh_pushreg rdi
	push	rbx
	.seh_pushreg rbx
	sub	rsp, 32
	.seh_stackalloc 32
	lea	rbp, [rdx + 112]
	.seh_endprologue
	call	__std_terminate
	int3
.Lfunc_end18:
	.seh_handlerdata
	.section	.text,"xr",one_only,"?swap@array@json@boost@@QEAAXAEAV123@@Z"
	.seh_endproc
	.section	.xdata,"dr",associative,"?swap@array@json@boost@@QEAAXAEAV123@@Z"
	.p2align	2
"$cppxdata$?swap@array@json@boost@@QEAAXAEAV123@@Z":
	.long	429065506               # MagicNumber
	.long	5                       # MaxState
	.long	("$stateUnwindMap$?swap@array@json@boost@@QEAAXAEAV123@@Z")@IMGREL # UnwindMap
	.long	0                       # NumTryBlocks
	.long	0                       # TryBlockMap
	.long	10                      # IPMapEntries
	.long	("$ip2state$?swap@array@json@boost@@QEAAXAEAV123@@Z")@IMGREL # IPToStateXData
	.long	104                     # UnwindHelp
	.long	0                       # ESTypeList
	.long	1                       # EHFlags
"$stateUnwindMap$?swap@array@json@boost@@QEAAXAEAV123@@Z":
	.long	-1                      # ToState
	.long	"?dtor$115@?0??swap@array@json@boost@@QEAAXAEAV123@@Z@4HA"@IMGREL # Action
	.long	-1                      # ToState
	.long	"?dtor$116@?0??swap@array@json@boost@@QEAAXAEAV123@@Z@4HA"@IMGREL # Action
	.long	-1                      # ToState
	.long	"?dtor$117@?0??swap@array@json@boost@@QEAAXAEAV123@@Z@4HA"@IMGREL # Action
	.long	-1                      # ToState
	.long	"?dtor$118@?0??swap@array@json@boost@@QEAAXAEAV123@@Z@4HA"@IMGREL # Action
	.long	-1                      # ToState
	.long	"?dtor$95@?0??swap@array@json@boost@@QEAAXAEAV123@@Z@4HA"@IMGREL # Action
"$ip2state$?swap@array@json@boost@@QEAAXAEAV123@@Z":
	.long	.Lfunc_begin18@IMGREL   # IP
	.long	-1                      # ToState
	.long	.Ltmp56@IMGREL+1        # IP
	.long	4                       # ToState
	.long	.Ltmp58@IMGREL+1        # IP
	.long	0                       # ToState
	.long	.Ltmp59@IMGREL+1        # IP
	.long	-1                      # ToState
	.long	.Ltmp60@IMGREL+1        # IP
	.long	1                       # ToState
	.long	.Ltmp61@IMGREL+1        # IP
	.long	-1                      # ToState
	.long	.Ltmp62@IMGREL+1        # IP
	.long	2                       # ToState
	.long	.Ltmp63@IMGREL+1        # IP
	.long	-1                      # ToState
	.long	.Ltmp64@IMGREL+1        # IP
	.long	3                       # ToState
	.long	.Ltmp65@IMGREL+1        # IP
	.long	-1                      # ToState
	.section	.text,"xr",one_only,"?swap@array@json@boost@@QEAAXAEAV123@@Z"
                                        # -- End function
	.def	 "?destroy@array@json@boost@@AEAAXXZ";
	.scl	2;
	.type	32;
	.endef
	.section	.text,"xr",one_only,"?destroy@array@json@boost@@AEAAXXZ"
	.globl	"?destroy@array@json@boost@@AEAAXXZ" # -- Begin function ?destroy@array@json@boost@@AEAAXXZ
	.p2align	4, 0x90
"?destroy@array@json@boost@@AEAAXXZ":   # @"?destroy@array@json@boost@@AEAAXXZ"
# %bb.0:
	mov	rdx, rcx
	add	rcx, 16
	jmp	"?destroy_impl@array_impl@detail@json@boost@@QEAAXAEBVstorage_ptr@34@@Z" # TAILCALL
                                        # -- End function
	.def	 "?destroy_impl@array_impl@detail@json@boost@@QEAAXAEBVstorage_ptr@34@@Z";
	.scl	2;
	.type	32;
	.endef
	.section	.text,"xr",discard,"?destroy_impl@array_impl@detail@json@boost@@QEAAXAEBVstorage_ptr@34@@Z"
	.globl	"?destroy_impl@array_impl@detail@json@boost@@QEAAXAEBVstorage_ptr@34@@Z" # -- Begin function ?destroy_impl@array_impl@detail@json@boost@@QEAAXAEBVstorage_ptr@34@@Z
	.p2align	4, 0x90
"?destroy_impl@array_impl@detail@json@boost@@QEAAXAEBVstorage_ptr@34@@Z": # @"?destroy_impl@array_impl@detail@json@boost@@QEAAXAEBVstorage_ptr@34@@Z"
.Lfunc_begin19:
.seh_proc "?destroy_impl@array_impl@detail@json@boost@@QEAAXAEBVstorage_ptr@34@@Z"
	.seh_handler __CxxFrameHandler3, @unwind, @except
# %bb.0:
	push	rbp
	.seh_pushreg rbp
	push	rsi
	.seh_pushreg rsi
	push	rdi
	.seh_pushreg rdi
	push	rbx
	.seh_pushreg rbx
	sub	rsp, 40
	.seh_stackalloc 40
	lea	rbp, [rsp + 32]
	.seh_setframe rbp, 32
	.seh_endprologue
	mov	qword ptr [rbp], -2
	mov	rdi, rdx
	mov	rsi, rcx
	mov	rax, qword ptr [rcx]
	mov	ecx, dword ptr [rax]
	test	rcx, rcx
	je	.LBB33_3
# %bb.1:
	lea	rdx, [rax + 8]
	test	rax, rax
	cmove	rdx, rax
	lea	rax, [rcx + 2*rcx]
	lea	rbx, [rdx + 8*rax]
	.p2align	4, 0x90
.LBB33_2:                               # =>This Inner Loop Header: Depth=1
	add	rbx, -24
	mov	rcx, rbx
	call	"??1value@json@boost@@QEAA@XZ"
	mov	rax, qword ptr [rsi]
	lea	rcx, [rax + 8]
	test	rax, rax
	cmove	rcx, rax
	cmp	rbx, rcx
	jne	.LBB33_2
.LBB33_3:
	mov	rdi, qword ptr [rdi]
	test	rdi, rdi
	je	.LBB33_5
# %bb.4:
	and	rdi, -4
	jmp	.LBB33_8
.LBB33_5:
	mov	eax, dword ptr [rip + "?$TSS0@?1??get_default@storage_ptr@json@boost@@CAPEAVmemory_resource@pmr@container@3@XZ@4HA"]
	mov	ecx, dword ptr [rip + _tls_index]
	mov	rdx, qword ptr gs:[88]
	mov	rcx, qword ptr [rdx + 8*rcx]
	lea	rdi, [rip + "?impl@?1??get_default@storage_ptr@json@boost@@CAPEAVmemory_resource@pmr@container@4@XZ@4Vdefault_resource@detail@34@A"]
	cmp	eax, dword ptr [rcx + _Init_thread_epoch@SECREL32]
	jg	.LBB33_6
.LBB33_8:
	mov	rdx, qword ptr [rsi]
	test	rdx, rdx
	je	.LBB33_9
# %bb.10:
	mov	eax, dword ptr [rdx + 4]
	lea	rax, [rax + 2*rax]
	lea	rax, [8*rax + 17]
	movabs	r8, 274877906936
	and	r8, rax
	jmp	.LBB33_11
.LBB33_9:
	mov	r8d, 16
.LBB33_11:
	mov	rax, qword ptr [rdi]
.Ltmp66:
	mov	r9d, 8
	mov	rcx, rdi
	call	qword ptr [rax + 16]
.Ltmp67:
# %bb.12:
	nop
	add	rsp, 40
	pop	rbx
	pop	rdi
	pop	rsi
	pop	rbp
	ret
.LBB33_6:
	lea	rcx, [rip + "?$TSS0@?1??get_default@storage_ptr@json@boost@@CAPEAVmemory_resource@pmr@container@3@XZ@4HA"]
	call	_Init_thread_header
	cmp	dword ptr [rip + "?$TSS0@?1??get_default@storage_ptr@json@boost@@CAPEAVmemory_resource@pmr@container@3@XZ@4HA"], -1
	jne	.LBB33_8
# %bb.7:
	lea	rcx, [rip + "??__Fimpl@?1??get_default@storage_ptr@json@boost@@CAPEAVmemory_resource@pmr@container@4@XZ@YAXXZ"]
	call	atexit
	lea	rcx, [rip + "?$TSS0@?1??get_default@storage_ptr@json@boost@@CAPEAVmemory_resource@pmr@container@3@XZ@4HA"]
	call	_Init_thread_footer
	jmp	.LBB33_8
	.seh_handlerdata
	.long	("$cppxdata$?destroy_impl@array_impl@detail@json@boost@@QEAAXAEBVstorage_ptr@34@@Z")@IMGREL
	.section	.text,"xr",discard,"?destroy_impl@array_impl@detail@json@boost@@QEAAXAEBVstorage_ptr@34@@Z"
	.seh_endproc
	.def	 "?dtor$13@?0??destroy_impl@array_impl@detail@json@boost@@QEAAXAEBVstorage_ptr@34@@Z@4HA";
	.scl	3;
	.type	32;
	.endef
	.p2align	4, 0x90
"?dtor$13@?0??destroy_impl@array_impl@detail@json@boost@@QEAAXAEBVstorage_ptr@34@@Z@4HA":
.seh_proc "?dtor$13@?0??destroy_impl@array_impl@detail@json@boost@@QEAAXAEBVstorage_ptr@34@@Z@4HA"
.LBB33_13:
	mov	qword ptr [rsp + 16], rdx
	push	rbp
	.seh_pushreg rbp
	push	rsi
	.seh_pushreg rsi
	push	rdi
	.seh_pushreg rdi
	push	rbx
	.seh_pushreg rbx
	sub	rsp, 40
	.seh_stackalloc 40
	lea	rbp, [rdx + 32]
	.seh_endprologue
	call	__std_terminate
	int3
.Lfunc_end19:
	.seh_handlerdata
	.section	.text,"xr",discard,"?destroy_impl@array_impl@detail@json@boost@@QEAAXAEBVstorage_ptr@34@@Z"
	.seh_endproc
	.section	.xdata,"dr",associative,"?destroy_impl@array_impl@detail@json@boost@@QEAAXAEBVstorage_ptr@34@@Z"
	.p2align	2
"$cppxdata$?destroy_impl@array_impl@detail@json@boost@@QEAAXAEBVstorage_ptr@34@@Z":
	.long	429065506               # MagicNumber
	.long	1                       # MaxState
	.long	("$stateUnwindMap$?destroy_impl@array_impl@detail@json@boost@@QEAAXAEBVstorage_ptr@34@@Z")@IMGREL # UnwindMap
	.long	0                       # NumTryBlocks
	.long	0                       # TryBlockMap
	.long	3                       # IPMapEntries
	.long	("$ip2state$?destroy_impl@array_impl@detail@json@boost@@QEAAXAEBVstorage_ptr@34@@Z")@IMGREL # IPToStateXData
	.long	32                      # UnwindHelp
	.long	0                       # ESTypeList
	.long	1                       # EHFlags
"$stateUnwindMap$?destroy_impl@array_impl@detail@json@boost@@QEAAXAEBVstorage_ptr@34@@Z":
	.long	-1                      # ToState
	.long	"?dtor$13@?0??destroy_impl@array_impl@detail@json@boost@@QEAAXAEBVstorage_ptr@34@@Z@4HA"@IMGREL # Action
"$ip2state$?destroy_impl@array_impl@detail@json@boost@@QEAAXAEBVstorage_ptr@34@@Z":
	.long	.Lfunc_begin19@IMGREL   # IP
	.long	-1                      # ToState
	.long	.Ltmp66@IMGREL+1        # IP
	.long	0                       # ToState
	.long	.Ltmp67@IMGREL+1        # IP
	.long	-1                      # ToState
	.section	.text,"xr",discard,"?destroy_impl@array_impl@detail@json@boost@@QEAAXAEBVstorage_ptr@34@@Z"
                                        # -- End function
	.def	 "?reserve_impl@array@json@boost@@AEAAX_K@Z";
	.scl	2;
	.type	32;
	.endef
	.section	.text,"xr",one_only,"?reserve_impl@array@json@boost@@AEAAX_K@Z"
	.globl	"?reserve_impl@array@json@boost@@AEAAX_K@Z" # -- Begin function ?reserve_impl@array@json@boost@@AEAAX_K@Z
	.p2align	4, 0x90
"?reserve_impl@array@json@boost@@AEAAX_K@Z": # @"?reserve_impl@array@json@boost@@AEAAX_K@Z"
.seh_proc "?reserve_impl@array@json@boost@@AEAAX_K@Z"
# %bb.0:
	push	r14
	.seh_pushreg r14
	push	rsi
	.seh_pushreg rsi
	push	rdi
	.seh_pushreg rdi
	push	rbx
	.seh_pushreg rbx
	sub	rsp, 40
	.seh_stackalloc 40
	.seh_endprologue
	mov	rsi, rcx
	mov	rax, qword ptr [rcx + 16]
	test	rax, rax
	je	.LBB34_3
# %bb.1:
	mov	ecx, dword ptr [rax + 4]
	lea	rax, [rcx + rcx]
	mov	edi, 2147483646
	cmp	rax, rcx
	jb	.LBB34_5
# %bb.2:
	cmp	rax, rdx
	cmova	rdx, rax
.LBB34_3:
	mov	edi, 16
	cmp	rdx, 16
	jb	.LBB34_5
# %bb.4:
	mov	rdi, rdx
	cmp	rdx, 2147483647
	jae	.LBB34_19
.LBB34_5:
	lea	r14, [rsi + 16]
	mov	rbx, qword ptr [rsi]
	test	rbx, rbx
	je	.LBB34_7
# %bb.6:
	and	rbx, -4
	jmp	.LBB34_10
.LBB34_7:
	mov	eax, dword ptr [rip + "?$TSS0@?1??get_default@storage_ptr@json@boost@@CAPEAVmemory_resource@pmr@container@3@XZ@4HA"]
	mov	ecx, dword ptr [rip + _tls_index]
	mov	rdx, qword ptr gs:[88]
	mov	rcx, qword ptr [rdx + 8*rcx]
	lea	rbx, [rip + "?impl@?1??get_default@storage_ptr@json@boost@@CAPEAVmemory_resource@pmr@container@4@XZ@4Vdefault_resource@detail@34@A"]
	cmp	eax, dword ptr [rcx + _Init_thread_epoch@SECREL32]
	jg	.LBB34_8
.LBB34_10:
	lea	rax, [rdi + 2*rdi]
	lea	rdx, [8*rax + 17]
	and	rdx, -8
	mov	rax, qword ptr [rbx]
	mov	r8d, 8
	mov	rcx, rbx
	call	qword ptr [rax + 8]
	mov	rbx, rax
	mov	dword ptr [rax + 4], edi
	mov	dword ptr [rax], 0
	mov	rdx, qword ptr [r14]
	test	rdx, rdx
	je	.LBB34_15
# %bb.11:
	mov	eax, dword ptr [rdx]
	test	rax, rax
	je	.LBB34_13
# %bb.12:
	lea	rcx, [rbx + 8]
	add	rdx, 8
	test	rbx, rbx
	cmove	rcx, rbx
	shl	rax, 3
	lea	r8, [rax + 2*rax]
	call	memmove
	mov	rdx, qword ptr [r14]
	test	rdx, rdx
	je	.LBB34_15
.LBB34_13:
	test	rbx, rbx
	je	.LBB34_17
# %bb.14:
	mov	eax, dword ptr [rdx]
	jmp	.LBB34_16
.LBB34_15:
	xor	eax, eax
	test	rbx, rbx
	je	.LBB34_18
.LBB34_16:
	mov	dword ptr [rbx], eax
	mov	rdx, qword ptr [r14]
	test	rdx, rdx
	je	.LBB34_18
.LBB34_17:
	mov	dword ptr [rdx], 0
.LBB34_18:
	mov	rcx, r14
	mov	rdx, rsi
	call	"?destroy@array_impl@detail@json@boost@@QEAAXAEBVstorage_ptr@34@@Z"
	mov	qword ptr [rsi + 16], rbx
	add	rsp, 40
	pop	rbx
	pop	rdi
	pop	rsi
	pop	r14
	ret
.LBB34_8:
	lea	rcx, [rip + "?$TSS0@?1??get_default@storage_ptr@json@boost@@CAPEAVmemory_resource@pmr@container@3@XZ@4HA"]
	call	_Init_thread_header
	cmp	dword ptr [rip + "?$TSS0@?1??get_default@storage_ptr@json@boost@@CAPEAVmemory_resource@pmr@container@3@XZ@4HA"], -1
	jne	.LBB34_10
# %bb.9:
	lea	rcx, [rip + "??__Fimpl@?1??get_default@storage_ptr@json@boost@@CAPEAVmemory_resource@pmr@container@4@XZ@YAXXZ"]
	call	atexit
	lea	rcx, [rip + "?$TSS0@?1??get_default@storage_ptr@json@boost@@CAPEAVmemory_resource@pmr@container@3@XZ@4HA"]
	call	_Init_thread_footer
	jmp	.LBB34_10
.LBB34_19:
	call	"?raise@array_too_large@json@boost@@SAXXZ"
	int3
	.seh_handlerdata
	.section	.text,"xr",one_only,"?reserve_impl@array@json@boost@@AEAAX_K@Z"
	.seh_endproc
                                        # -- End function
	.def	 "?make_error_code@json@boost@@YA?AVerror_code@system@2@W4error@12@@Z";
	.scl	2;
	.type	32;
	.endef
	.section	.text,"xr",one_only,"?make_error_code@json@boost@@YA?AVerror_code@system@2@W4error@12@@Z"
	.globl	"?make_error_code@json@boost@@YA?AVerror_code@system@2@W4error@12@@Z" # -- Begin function ?make_error_code@json@boost@@YA?AVerror_code@system@2@W4error@12@@Z
	.p2align	4, 0x90
"?make_error_code@json@boost@@YA?AVerror_code@system@2@W4error@12@@Z": # @"?make_error_code@json@boost@@YA?AVerror_code@system@2@W4error@12@@Z"
.seh_proc "?make_error_code@json@boost@@YA?AVerror_code@system@2@W4error@12@@Z"
# %bb.0:
	push	rsi
	.seh_pushreg rsi
	push	rdi
	.seh_pushreg rdi
	sub	rsp, 40
	.seh_stackalloc 40
	.seh_endprologue
	mov	rsi, rcx
	mov	dword ptr [rcx], edx
	lea	rdi, [rip + "?cat@?1??make_error_code@json@boost@@YA?AVerror_code@system@3@W4error@23@@Z@4Ucodes@?1??123@YA?AV453@0@Z@B"]
	mov	rcx, rdi
	call	qword ptr [rip + "??_7codes@?1??make_error_code@json@boost@@YA?AVerror_code@system@3@W4error@23@@Z@6B@"+48]
	mov	byte ptr [rsi + 4], al
	mov	qword ptr [rsi + 8], rdi
	mov	rax, rsi
	add	rsp, 40
	pop	rdi
	pop	rsi
	ret
	.seh_handlerdata
	.section	.text,"xr",one_only,"?make_error_code@json@boost@@YA?AVerror_code@system@2@W4error@12@@Z"
	.seh_endproc
                                        # -- End function
	.def	 "?make_error_condition@json@boost@@YA?AVerror_condition@system@2@W4condition@12@@Z";
	.scl	2;
	.type	32;
	.endef
	.section	.text,"xr",one_only,"?make_error_condition@json@boost@@YA?AVerror_condition@system@2@W4condition@12@@Z"
	.globl	"?make_error_condition@json@boost@@YA?AVerror_condition@system@2@W4condition@12@@Z" # -- Begin function ?make_error_condition@json@boost@@YA?AVerror_condition@system@2@W4condition@12@@Z
	.p2align	4, 0x90
"?make_error_condition@json@boost@@YA?AVerror_condition@system@2@W4condition@12@@Z": # @"?make_error_condition@json@boost@@YA?AVerror_condition@system@2@W4condition@12@@Z"
.seh_proc "?make_error_condition@json@boost@@YA?AVerror_condition@system@2@W4condition@12@@Z"
# %bb.0:
	push	rsi
	.seh_pushreg rsi
	push	rdi
	.seh_pushreg rdi
	sub	rsp, 40
	.seh_stackalloc 40
	.seh_endprologue
	mov	rsi, rcx
	mov	dword ptr [rcx], edx
	lea	rdi, [rip + "?cat@?1??make_error_condition@json@boost@@YA?AVerror_condition@system@3@W4condition@23@@Z@4Ucodes@?1??123@YA?AV453@0@Z@B"]
	mov	rcx, rdi
	call	qword ptr [rip + "??_7codes@?1??make_error_condition@json@boost@@YA?AVerror_condition@system@3@W4condition@23@@Z@6B@"+48]
	mov	byte ptr [rsi + 4], al
	mov	qword ptr [rsi + 8], rdi
	mov	rax, rsi
	add	rsp, 40
	pop	rdi
	pop	rsi
	ret
	.seh_handlerdata
	.section	.text,"xr",one_only,"?make_error_condition@json@boost@@YA?AVerror_condition@system@2@W4condition@12@@Z"
	.seh_endproc
                                        # -- End function
	.def	 "??0type_error@json@boost@@QEAA@PEBD@Z";
	.scl	2;
	.type	32;
	.endef
	.section	.text,"xr",one_only,"??0type_error@json@boost@@QEAA@PEBD@Z"
	.globl	"??0type_error@json@boost@@QEAA@PEBD@Z" # -- Begin function ??0type_error@json@boost@@QEAA@PEBD@Z
	.p2align	4, 0x90
"??0type_error@json@boost@@QEAA@PEBD@Z": # @"??0type_error@json@boost@@QEAA@PEBD@Z"
.Lfunc_begin20:
.seh_proc "??0type_error@json@boost@@QEAA@PEBD@Z"
	.seh_handler __CxxFrameHandler3, @unwind, @except
# %bb.0:
	push	rbp
	.seh_pushreg rbp
	push	rsi
	.seh_pushreg rsi
	sub	rsp, 56
	.seh_stackalloc 56
	lea	rbp, [rsp + 48]
	.seh_setframe rbp, 48
	.seh_endprologue
	mov	qword ptr [rbp], -2
	mov	rsi, rcx
	lea	rax, [rip + "??_7exception@std@@6B@"]
	mov	qword ptr [rcx], rax
	lea	rax, [rcx + 8]
	xorps	xmm0, xmm0
	movups	xmmword ptr [rcx + 8], xmm0
	mov	qword ptr [rbp - 16], rdx
	mov	byte ptr [rbp - 8], 1
.Ltmp68:
	lea	rcx, [rbp - 16]
	mov	rdx, rax
	call	__std_exception_copy
.Ltmp69:
# %bb.1:
	lea	rax, [rip + "??_7type_error@json@boost@@6B@"]
	mov	qword ptr [rsi], rax
	mov	rax, rsi
	add	rsp, 56
	pop	rsi
	pop	rbp
	ret
	.seh_handlerdata
	.long	("$cppxdata$??0type_error@json@boost@@QEAA@PEBD@Z")@IMGREL
	.section	.text,"xr",one_only,"??0type_error@json@boost@@QEAA@PEBD@Z"
	.seh_endproc
	.def	 "?dtor$2@?0???0type_error@json@boost@@QEAA@PEBD@Z@4HA";
	.scl	3;
	.type	32;
	.endef
	.p2align	4, 0x90
"?dtor$2@?0???0type_error@json@boost@@QEAA@PEBD@Z@4HA":
.seh_proc "?dtor$2@?0???0type_error@json@boost@@QEAA@PEBD@Z@4HA"
.LBB37_2:
	mov	qword ptr [rsp + 16], rdx
	push	rbp
	.seh_pushreg rbp
	push	rsi
	.seh_pushreg rsi
	sub	rsp, 40
	.seh_stackalloc 40
	lea	rbp, [rdx + 48]
	.seh_endprologue
	call	__std_terminate
	int3
.Lfunc_end20:
	.seh_handlerdata
	.section	.text,"xr",one_only,"??0type_error@json@boost@@QEAA@PEBD@Z"
	.seh_endproc
	.section	.xdata,"dr",associative,"??0type_error@json@boost@@QEAA@PEBD@Z"
	.p2align	2
"$cppxdata$??0type_error@json@boost@@QEAA@PEBD@Z":
	.long	429065506               # MagicNumber
	.long	1                       # MaxState
	.long	("$stateUnwindMap$??0type_error@json@boost@@QEAA@PEBD@Z")@IMGREL # UnwindMap
	.long	0                       # NumTryBlocks
	.long	0                       # TryBlockMap
	.long	3                       # IPMapEntries
	.long	("$ip2state$??0type_error@json@boost@@QEAA@PEBD@Z")@IMGREL # IPToStateXData
	.long	48                      # UnwindHelp
	.long	0                       # ESTypeList
	.long	1                       # EHFlags
"$stateUnwindMap$??0type_error@json@boost@@QEAA@PEBD@Z":
	.long	-1                      # ToState
	.long	"?dtor$2@?0???0type_error@json@boost@@QEAA@PEBD@Z@4HA"@IMGREL # Action
"$ip2state$??0type_error@json@boost@@QEAA@PEBD@Z":
	.long	.Lfunc_begin20@IMGREL   # IP
	.long	-1                      # ToState
	.long	.Ltmp68@IMGREL+1        # IP
	.long	0                       # ToState
	.long	.Ltmp69@IMGREL+1        # IP
	.long	-1                      # ToState
	.section	.text,"xr",one_only,"??0type_error@json@boost@@QEAA@PEBD@Z"
                                        # -- End function
	.def	 "??0number_required_error@json@boost@@QEAA@PEBD@Z";
	.scl	2;
	.type	32;
	.endef
	.section	.text,"xr",one_only,"??0number_required_error@json@boost@@QEAA@PEBD@Z"
	.globl	"??0number_required_error@json@boost@@QEAA@PEBD@Z" # -- Begin function ??0number_required_error@json@boost@@QEAA@PEBD@Z
	.p2align	4, 0x90
"??0number_required_error@json@boost@@QEAA@PEBD@Z": # @"??0number_required_error@json@boost@@QEAA@PEBD@Z"
.Lfunc_begin21:
.seh_proc "??0number_required_error@json@boost@@QEAA@PEBD@Z"
	.seh_handler __CxxFrameHandler3, @unwind, @except
# %bb.0:
	push	rbp
	.seh_pushreg rbp
	push	rsi
	.seh_pushreg rsi
	sub	rsp, 56
	.seh_stackalloc 56
	lea	rbp, [rsp + 48]
	.seh_setframe rbp, 48
	.seh_endprologue
	mov	qword ptr [rbp], -2
	mov	rsi, rcx
	lea	rax, [rip + "??_7exception@std@@6B@"]
	mov	qword ptr [rcx], rax
	lea	rax, [rcx + 8]
	xorps	xmm0, xmm0
	movups	xmmword ptr [rcx + 8], xmm0
	mov	qword ptr [rbp - 16], rdx
	mov	byte ptr [rbp - 8], 1
.Ltmp70:
	lea	rcx, [rbp - 16]
	mov	rdx, rax
	call	__std_exception_copy
.Ltmp71:
# %bb.1:
	lea	rax, [rip + "??_7number_required_error@json@boost@@6B@"]
	mov	qword ptr [rsi], rax
	mov	rax, rsi
	add	rsp, 56
	pop	rsi
	pop	rbp
	ret
	.seh_handlerdata
	.long	("$cppxdata$??0number_required_error@json@boost@@QEAA@PEBD@Z")@IMGREL
	.section	.text,"xr",one_only,"??0number_required_error@json@boost@@QEAA@PEBD@Z"
	.seh_endproc
	.def	 "?dtor$2@?0???0number_required_error@json@boost@@QEAA@PEBD@Z@4HA";
	.scl	3;
	.type	32;
	.endef
	.p2align	4, 0x90
"?dtor$2@?0???0number_required_error@json@boost@@QEAA@PEBD@Z@4HA":
.seh_proc "?dtor$2@?0???0number_required_error@json@boost@@QEAA@PEBD@Z@4HA"
.LBB38_2:
	mov	qword ptr [rsp + 16], rdx
	push	rbp
	.seh_pushreg rbp
	push	rsi
	.seh_pushreg rsi
	sub	rsp, 40
	.seh_stackalloc 40
	lea	rbp, [rdx + 48]
	.seh_endprologue
	call	__std_terminate
	int3
.Lfunc_end21:
	.seh_handlerdata
	.section	.text,"xr",one_only,"??0number_required_error@json@boost@@QEAA@PEBD@Z"
	.seh_endproc
	.section	.xdata,"dr",associative,"??0number_required_error@json@boost@@QEAA@PEBD@Z"
	.p2align	2
"$cppxdata$??0number_required_error@json@boost@@QEAA@PEBD@Z":
	.long	429065506               # MagicNumber
	.long	1                       # MaxState
	.long	("$stateUnwindMap$??0number_required_error@json@boost@@QEAA@PEBD@Z")@IMGREL # UnwindMap
	.long	0                       # NumTryBlocks
	.long	0                       # TryBlockMap
	.long	3                       # IPMapEntries
	.long	("$ip2state$??0number_required_error@json@boost@@QEAA@PEBD@Z")@IMGREL # IPToStateXData
	.long	48                      # UnwindHelp
	.long	0                       # ESTypeList
	.long	1                       # EHFlags
"$stateUnwindMap$??0number_required_error@json@boost@@QEAA@PEBD@Z":
	.long	-1                      # ToState
	.long	"?dtor$2@?0???0number_required_error@json@boost@@QEAA@PEBD@Z@4HA"@IMGREL # Action
"$ip2state$??0number_required_error@json@boost@@QEAA@PEBD@Z":
	.long	.Lfunc_begin21@IMGREL   # IP
	.long	-1                      # ToState
	.long	.Ltmp70@IMGREL+1        # IP
	.long	0                       # ToState
	.long	.Ltmp71@IMGREL+1        # IP
	.long	-1                      # ToState
	.section	.text,"xr",one_only,"??0number_required_error@json@boost@@QEAA@PEBD@Z"
                                        # -- End function
	.def	 "??0array_index_error@json@boost@@QEAA@XZ";
	.scl	2;
	.type	32;
	.endef
	.section	.text,"xr",one_only,"??0array_index_error@json@boost@@QEAA@XZ"
	.globl	"??0array_index_error@json@boost@@QEAA@XZ" # -- Begin function ??0array_index_error@json@boost@@QEAA@XZ
	.p2align	4, 0x90
"??0array_index_error@json@boost@@QEAA@XZ": # @"??0array_index_error@json@boost@@QEAA@XZ"
.Lfunc_begin22:
.seh_proc "??0array_index_error@json@boost@@QEAA@XZ"
	.seh_handler __CxxFrameHandler3, @unwind, @except
# %bb.0:
	push	rbp
	.seh_pushreg rbp
	push	rsi
	.seh_pushreg rsi
	sub	rsp, 56
	.seh_stackalloc 56
	lea	rbp, [rsp + 48]
	.seh_setframe rbp, 48
	.seh_endprologue
	mov	qword ptr [rbp], -2
	mov	rsi, rcx
	lea	rax, [rip + "??_7exception@std@@6B@"]
	mov	qword ptr [rcx], rax
	lea	rdx, [rcx + 8]
	xorps	xmm0, xmm0
	movups	xmmword ptr [rcx + 8], xmm0
	lea	rax, [rip + "??_C@_0BC@PJIHPFPB@array?5index?5error?$AA@"]
	mov	qword ptr [rbp - 16], rax
	mov	byte ptr [rbp - 8], 1
.Ltmp72:
	lea	rcx, [rbp - 16]
	call	__std_exception_copy
.Ltmp73:
# %bb.1:
	lea	rax, [rip + "??_7array_index_error@json@boost@@6B@"]
	mov	qword ptr [rsi], rax
	mov	rax, rsi
	add	rsp, 56
	pop	rsi
	pop	rbp
	ret
	.seh_handlerdata
	.long	("$cppxdata$??0array_index_error@json@boost@@QEAA@XZ")@IMGREL
	.section	.text,"xr",one_only,"??0array_index_error@json@boost@@QEAA@XZ"
	.seh_endproc
	.def	 "?dtor$2@?0???0array_index_error@json@boost@@QEAA@XZ@4HA";
	.scl	3;
	.type	32;
	.endef
	.p2align	4, 0x90
"?dtor$2@?0???0array_index_error@json@boost@@QEAA@XZ@4HA":
.seh_proc "?dtor$2@?0???0array_index_error@json@boost@@QEAA@XZ@4HA"
.LBB39_2:
	mov	qword ptr [rsp + 16], rdx
	push	rbp
	.seh_pushreg rbp
	push	rsi
	.seh_pushreg rsi
	sub	rsp, 40
	.seh_stackalloc 40
	lea	rbp, [rdx + 48]
	.seh_endprologue
	call	__std_terminate
	int3
.Lfunc_end22:
	.seh_handlerdata
	.section	.text,"xr",one_only,"??0array_index_error@json@boost@@QEAA@XZ"
	.seh_endproc
	.section	.xdata,"dr",associative,"??0array_index_error@json@boost@@QEAA@XZ"
	.p2align	2
"$cppxdata$??0array_index_error@json@boost@@QEAA@XZ":
	.long	429065506               # MagicNumber
	.long	1                       # MaxState
	.long	("$stateUnwindMap$??0array_index_error@json@boost@@QEAA@XZ")@IMGREL # UnwindMap
	.long	0                       # NumTryBlocks
	.long	0                       # TryBlockMap
	.long	3                       # IPMapEntries
	.long	("$ip2state$??0array_index_error@json@boost@@QEAA@XZ")@IMGREL # IPToStateXData
	.long	48                      # UnwindHelp
	.long	0                       # ESTypeList
	.long	1                       # EHFlags
"$stateUnwindMap$??0array_index_error@json@boost@@QEAA@XZ":
	.long	-1                      # ToState
	.long	"?dtor$2@?0???0array_index_error@json@boost@@QEAA@XZ@4HA"@IMGREL # Action
"$ip2state$??0array_index_error@json@boost@@QEAA@XZ":
	.long	.Lfunc_begin22@IMGREL   # IP
	.long	-1                      # ToState
	.long	.Ltmp72@IMGREL+1        # IP
	.long	0                       # ToState
	.long	.Ltmp73@IMGREL+1        # IP
	.long	-1                      # ToState
	.section	.text,"xr",one_only,"??0array_index_error@json@boost@@QEAA@XZ"
                                        # -- End function
	.def	 "?raise@array_index_error@json@boost@@SAXXZ";
	.scl	2;
	.type	32;
	.endef
	.section	.text,"xr",one_only,"?raise@array_index_error@json@boost@@SAXXZ"
	.globl	"?raise@array_index_error@json@boost@@SAXXZ" # -- Begin function ?raise@array_index_error@json@boost@@SAXXZ
	.p2align	4, 0x90
"?raise@array_index_error@json@boost@@SAXXZ": # @"?raise@array_index_error@json@boost@@SAXXZ"
.Lfunc_begin23:
.seh_proc "?raise@array_index_error@json@boost@@SAXXZ"
	.seh_handler __CxxFrameHandler3, @unwind, @except
# %bb.0:
	push	rbp
	.seh_pushreg rbp
	sub	rsp, 112
	.seh_stackalloc 112
	lea	rbp, [rsp + 112]
	.seh_setframe rbp, 112
	.seh_endprologue
	mov	qword ptr [rbp - 8], -2
	lea	rax, [rip + "??_C@_0CB@DLOHHGHO@?4?4?2?4?4?2boost?1json?1impl?1except?4ipp@"]
	mov	qword ptr [rbp - 72], rax
	lea	rax, [rip + "??_C@_0DE@NGCCBFGO@static?5void?5boost?3?3json?3?3array_i@"]
	mov	qword ptr [rbp - 64], rax
	mov	qword ptr [rbp - 56], 45
	lea	rax, [rip + "??_7exception@std@@6B@"]
	mov	qword ptr [rbp - 32], rax
	lea	rdx, [rbp - 24]
	xorps	xmm0, xmm0
	movups	xmmword ptr [rbp - 24], xmm0
	lea	rax, [rip + "??_C@_0BC@PJIHPFPB@array?5index?5error?$AA@"]
	mov	qword ptr [rbp - 48], rax
	mov	byte ptr [rbp - 40], 1
.Ltmp74:
	lea	rcx, [rbp - 48]
	call	__std_exception_copy
.Ltmp75:
# %bb.1:
	lea	rax, [rip + "??_7array_index_error@json@boost@@6B@"]
	mov	qword ptr [rbp - 32], rax
.Ltmp76:
	lea	rcx, [rbp - 32]
	lea	rdx, [rbp - 72]
	call	"??$throw_exception@Uarray_index_error@json@boost@@@boost@@YAXAEBUarray_index_error@json@0@AEBUsource_location@0@@Z"
	sub	rsp, 32
.Ltmp77:
# %bb.2:
	.seh_handlerdata
	.long	("$cppxdata$?raise@array_index_error@json@boost@@SAXXZ")@IMGREL
	.section	.text,"xr",one_only,"?raise@array_index_error@json@boost@@SAXXZ"
	.seh_endproc
	.def	 "?dtor$3@?0??raise@array_index_error@json@boost@@SAXXZ@4HA";
	.scl	3;
	.type	32;
	.endef
	.p2align	4, 0x90
"?dtor$3@?0??raise@array_index_error@json@boost@@SAXXZ@4HA":
.seh_proc "?dtor$3@?0??raise@array_index_error@json@boost@@SAXXZ@4HA"
.LBB40_3:
	mov	qword ptr [rsp + 16], rdx
	push	rbp
	.seh_pushreg rbp
	sub	rsp, 32
	.seh_stackalloc 32
	lea	rbp, [rdx + 112]
	.seh_endprologue
	lea	rax, [rip + "??_7exception@std@@6B@"]
	mov	qword ptr [rbp - 32], rax
	lea	rcx, [rbp - 24]
	call	__std_exception_destroy
	nop
	add	rsp, 32
	pop	rbp
	ret                             # CLEANUPRET
	.seh_handlerdata
	.section	.text,"xr",one_only,"?raise@array_index_error@json@boost@@SAXXZ"
	.seh_endproc
	.def	 "?dtor$4@?0??raise@array_index_error@json@boost@@SAXXZ@4HA";
	.scl	3;
	.type	32;
	.endef
	.p2align	4, 0x90
"?dtor$4@?0??raise@array_index_error@json@boost@@SAXXZ@4HA":
.seh_proc "?dtor$4@?0??raise@array_index_error@json@boost@@SAXXZ@4HA"
.LBB40_4:
	mov	qword ptr [rsp + 16], rdx
	push	rbp
	.seh_pushreg rbp
	sub	rsp, 32
	.seh_stackalloc 32
	lea	rbp, [rdx + 112]
	.seh_endprologue
	call	__std_terminate
	int3
.Lfunc_end23:
	.seh_handlerdata
	.section	.text,"xr",one_only,"?raise@array_index_error@json@boost@@SAXXZ"
	.seh_endproc
	.section	.xdata,"dr",associative,"?raise@array_index_error@json@boost@@SAXXZ"
	.p2align	2
"$cppxdata$?raise@array_index_error@json@boost@@SAXXZ":
	.long	429065506               # MagicNumber
	.long	2                       # MaxState
	.long	("$stateUnwindMap$?raise@array_index_error@json@boost@@SAXXZ")@IMGREL # UnwindMap
	.long	0                       # NumTryBlocks
	.long	0                       # TryBlockMap
	.long	4                       # IPMapEntries
	.long	("$ip2state$?raise@array_index_error@json@boost@@SAXXZ")@IMGREL # IPToStateXData
	.long	104                     # UnwindHelp
	.long	0                       # ESTypeList
	.long	1                       # EHFlags
"$stateUnwindMap$?raise@array_index_error@json@boost@@SAXXZ":
	.long	-1                      # ToState
	.long	"?dtor$4@?0??raise@array_index_error@json@boost@@SAXXZ@4HA"@IMGREL # Action
	.long	-1                      # ToState
	.long	"?dtor$3@?0??raise@array_index_error@json@boost@@SAXXZ@4HA"@IMGREL # Action
"$ip2state$?raise@array_index_error@json@boost@@SAXXZ":
	.long	.Lfunc_begin23@IMGREL   # IP
	.long	-1                      # ToState
	.long	.Ltmp74@IMGREL+1        # IP
	.long	0                       # ToState
	.long	.Ltmp76@IMGREL+1        # IP
	.long	1                       # ToState
	.long	.Ltmp77@IMGREL+1        # IP
	.long	-1                      # ToState
	.section	.text,"xr",one_only,"?raise@array_index_error@json@boost@@SAXXZ"
                                        # -- End function
	.def	 "??$throw_exception@Uarray_index_error@json@boost@@@boost@@YAXAEBUarray_index_error@json@0@AEBUsource_location@0@@Z";
	.scl	2;
	.type	32;
	.endef
	.section	.text,"xr",discard,"??$throw_exception@Uarray_index_error@json@boost@@@boost@@YAXAEBUarray_index_error@json@0@AEBUsource_location@0@@Z"
	.globl	"??$throw_exception@Uarray_index_error@json@boost@@@boost@@YAXAEBUarray_index_error@json@0@AEBUsource_location@0@@Z" # -- Begin function ??$throw_exception@Uarray_index_error@json@boost@@@boost@@YAXAEBUarray_index_error@json@0@AEBUsource_location@0@@Z
	.p2align	4, 0x90
"??$throw_exception@Uarray_index_error@json@boost@@@boost@@YAXAEBUarray_index_error@json@0@AEBUsource_location@0@@Z": # @"??$throw_exception@Uarray_index_error@json@boost@@@boost@@YAXAEBUarray_index_error@json@0@AEBUsource_location@0@@Z"
.seh_proc "??$throw_exception@Uarray_index_error@json@boost@@@boost@@YAXAEBUarray_index_error@json@0@AEBUsource_location@0@@Z"
# %bb.0:
	push	rsi
	.seh_pushreg rsi
	sub	rsp, 112
	.seh_stackalloc 112
	.seh_endprologue
	mov	r8, rdx
	mov	rdx, rcx
	lea	rsi, [rsp + 40]
	mov	rcx, rsi
	call	"??0?$wrapexcept@Uarray_index_error@json@boost@@@boost@@QEAA@AEBUarray_index_error@json@1@AEBUsource_location@1@@Z"
	lea	rdx, [rip + "_TI7?AU?$wrapexcept@Uarray_index_error@json@boost@@@boost@@"]
	mov	rcx, rsi
	call	_CxxThrowException
	int3
	.seh_handlerdata
	.section	.text,"xr",discard,"??$throw_exception@Uarray_index_error@json@boost@@@boost@@YAXAEBUarray_index_error@json@0@AEBUsource_location@0@@Z"
	.seh_endproc
                                        # -- End function
	.def	 "??0array_required_error@json@boost@@QEAA@XZ";
	.scl	2;
	.type	32;
	.endef
	.section	.text,"xr",one_only,"??0array_required_error@json@boost@@QEAA@XZ"
	.globl	"??0array_required_error@json@boost@@QEAA@XZ" # -- Begin function ??0array_required_error@json@boost@@QEAA@XZ
	.p2align	4, 0x90
"??0array_required_error@json@boost@@QEAA@XZ": # @"??0array_required_error@json@boost@@QEAA@XZ"
.Lfunc_begin24:
.seh_proc "??0array_required_error@json@boost@@QEAA@XZ"
	.seh_handler __CxxFrameHandler3, @unwind, @except
# %bb.0:
	push	rbp
	.seh_pushreg rbp
	push	rsi
	.seh_pushreg rsi
	sub	rsp, 56
	.seh_stackalloc 56
	lea	rbp, [rsp + 48]
	.seh_setframe rbp, 48
	.seh_endprologue
	mov	qword ptr [rbp], -2
	mov	rsi, rcx
	lea	rax, [rip + "??_7exception@std@@6B@"]
	mov	qword ptr [rcx], rax
	lea	rdx, [rcx + 8]
	xorps	xmm0, xmm0
	movups	xmmword ptr [rcx + 8], xmm0
	lea	rax, [rip + "??_C@_0P@DGLCELNH@array?5required?$AA@"]
	mov	qword ptr [rbp - 16], rax
	mov	byte ptr [rbp - 8], 1
.Ltmp78:
	lea	rcx, [rbp - 16]
	call	__std_exception_copy
.Ltmp79:
# %bb.1:
	lea	rax, [rip + "??_7array_required_error@json@boost@@6B@"]
	mov	qword ptr [rsi], rax
	mov	rax, rsi
	add	rsp, 56
	pop	rsi
	pop	rbp
	ret
	.seh_handlerdata
	.long	("$cppxdata$??0array_required_error@json@boost@@QEAA@XZ")@IMGREL
	.section	.text,"xr",one_only,"??0array_required_error@json@boost@@QEAA@XZ"
	.seh_endproc
	.def	 "?dtor$2@?0???0array_required_error@json@boost@@QEAA@XZ@4HA";
	.scl	3;
	.type	32;
	.endef
	.p2align	4, 0x90
"?dtor$2@?0???0array_required_error@json@boost@@QEAA@XZ@4HA":
.seh_proc "?dtor$2@?0???0array_required_error@json@boost@@QEAA@XZ@4HA"
.LBB42_2:
	mov	qword ptr [rsp + 16], rdx
	push	rbp
	.seh_pushreg rbp
	push	rsi
	.seh_pushreg rsi
	sub	rsp, 40
	.seh_stackalloc 40
	lea	rbp, [rdx + 48]
	.seh_endprologue
	call	__std_terminate
	int3
.Lfunc_end24:
	.seh_handlerdata
	.section	.text,"xr",one_only,"??0array_required_error@json@boost@@QEAA@XZ"
	.seh_endproc
	.section	.xdata,"dr",associative,"??0array_required_error@json@boost@@QEAA@XZ"
	.p2align	2
"$cppxdata$??0array_required_error@json@boost@@QEAA@XZ":
	.long	429065506               # MagicNumber
	.long	1                       # MaxState
	.long	("$stateUnwindMap$??0array_required_error@json@boost@@QEAA@XZ")@IMGREL # UnwindMap
	.long	0                       # NumTryBlocks
	.long	0                       # TryBlockMap
	.long	3                       # IPMapEntries
	.long	("$ip2state$??0array_required_error@json@boost@@QEAA@XZ")@IMGREL # IPToStateXData
	.long	48                      # UnwindHelp
	.long	0                       # ESTypeList
	.long	1                       # EHFlags
"$stateUnwindMap$??0array_required_error@json@boost@@QEAA@XZ":
	.long	-1                      # ToState
	.long	"?dtor$2@?0???0array_required_error@json@boost@@QEAA@XZ@4HA"@IMGREL # Action
"$ip2state$??0array_required_error@json@boost@@QEAA@XZ":
	.long	.Lfunc_begin24@IMGREL   # IP
	.long	-1                      # ToState
	.long	.Ltmp78@IMGREL+1        # IP
	.long	0                       # ToState
	.long	.Ltmp79@IMGREL+1        # IP
	.long	-1                      # ToState
	.section	.text,"xr",one_only,"??0array_required_error@json@boost@@QEAA@XZ"
                                        # -- End function
	.def	 "?raise@array_required_error@json@boost@@SAXXZ";
	.scl	2;
	.type	32;
	.endef
	.section	.text,"xr",one_only,"?raise@array_required_error@json@boost@@SAXXZ"
	.globl	"?raise@array_required_error@json@boost@@SAXXZ" # -- Begin function ?raise@array_required_error@json@boost@@SAXXZ
	.p2align	4, 0x90
"?raise@array_required_error@json@boost@@SAXXZ": # @"?raise@array_required_error@json@boost@@SAXXZ"
.Lfunc_begin25:
.seh_proc "?raise@array_required_error@json@boost@@SAXXZ"
	.seh_handler __CxxFrameHandler3, @unwind, @except
# %bb.0:
	push	rbp
	.seh_pushreg rbp
	sub	rsp, 112
	.seh_stackalloc 112
	lea	rbp, [rsp + 112]
	.seh_setframe rbp, 112
	.seh_endprologue
	mov	qword ptr [rbp - 8], -2
	lea	rax, [rip + "??_C@_0CB@DLOHHGHO@?4?4?2?4?4?2boost?1json?1impl?1except?4ipp@"]
	mov	qword ptr [rbp - 72], rax
	lea	rax, [rip + "??_C@_0DH@GOOMKIKE@static?5void?5boost?3?3json?3?3array_r@"]
	mov	qword ptr [rbp - 64], rax
	mov	qword ptr [rbp - 56], 62
	lea	rax, [rip + "??_7exception@std@@6B@"]
	mov	qword ptr [rbp - 32], rax
	lea	rdx, [rbp - 24]
	xorps	xmm0, xmm0
	movups	xmmword ptr [rbp - 24], xmm0
	lea	rax, [rip + "??_C@_0P@DGLCELNH@array?5required?$AA@"]
	mov	qword ptr [rbp - 48], rax
	mov	byte ptr [rbp - 40], 1
.Ltmp80:
	lea	rcx, [rbp - 48]
	call	__std_exception_copy
.Ltmp81:
# %bb.1:
	lea	rax, [rip + "??_7array_required_error@json@boost@@6B@"]
	mov	qword ptr [rbp - 32], rax
.Ltmp82:
	lea	rcx, [rbp - 32]
	lea	rdx, [rbp - 72]
	call	"??$throw_exception@Uarray_required_error@json@boost@@@boost@@YAXAEBUarray_required_error@json@0@AEBUsource_location@0@@Z"
	sub	rsp, 32
.Ltmp83:
# %bb.2:
	.seh_handlerdata
	.long	("$cppxdata$?raise@array_required_error@json@boost@@SAXXZ")@IMGREL
	.section	.text,"xr",one_only,"?raise@array_required_error@json@boost@@SAXXZ"
	.seh_endproc
	.def	 "?dtor$3@?0??raise@array_required_error@json@boost@@SAXXZ@4HA";
	.scl	3;
	.type	32;
	.endef
	.p2align	4, 0x90
"?dtor$3@?0??raise@array_required_error@json@boost@@SAXXZ@4HA":
.seh_proc "?dtor$3@?0??raise@array_required_error@json@boost@@SAXXZ@4HA"
.LBB43_3:
	mov	qword ptr [rsp + 16], rdx
	push	rbp
	.seh_pushreg rbp
	sub	rsp, 32
	.seh_stackalloc 32
	lea	rbp, [rdx + 112]
	.seh_endprologue
	lea	rax, [rip + "??_7exception@std@@6B@"]
	mov	qword ptr [rbp - 32], rax
	lea	rcx, [rbp - 24]
	call	__std_exception_destroy
	nop
	add	rsp, 32
	pop	rbp
	ret                             # CLEANUPRET
	.seh_handlerdata
	.section	.text,"xr",one_only,"?raise@array_required_error@json@boost@@SAXXZ"
	.seh_endproc
	.def	 "?dtor$4@?0??raise@array_required_error@json@boost@@SAXXZ@4HA";
	.scl	3;
	.type	32;
	.endef
	.p2align	4, 0x90
"?dtor$4@?0??raise@array_required_error@json@boost@@SAXXZ@4HA":
.seh_proc "?dtor$4@?0??raise@array_required_error@json@boost@@SAXXZ@4HA"
.LBB43_4:
	mov	qword ptr [rsp + 16], rdx
	push	rbp
	.seh_pushreg rbp
	sub	rsp, 32
	.seh_stackalloc 32
	lea	rbp, [rdx + 112]
	.seh_endprologue
	call	__std_terminate
	int3
.Lfunc_end25:
	.seh_handlerdata
	.section	.text,"xr",one_only,"?raise@array_required_error@json@boost@@SAXXZ"
	.seh_endproc
	.section	.xdata,"dr",associative,"?raise@array_required_error@json@boost@@SAXXZ"
	.p2align	2
"$cppxdata$?raise@array_required_error@json@boost@@SAXXZ":
	.long	429065506               # MagicNumber
	.long	2                       # MaxState
	.long	("$stateUnwindMap$?raise@array_required_error@json@boost@@SAXXZ")@IMGREL # UnwindMap
	.long	0                       # NumTryBlocks
	.long	0                       # TryBlockMap
	.long	4                       # IPMapEntries
	.long	("$ip2state$?raise@array_required_error@json@boost@@SAXXZ")@IMGREL # IPToStateXData
	.long	104                     # UnwindHelp
	.long	0                       # ESTypeList
	.long	1                       # EHFlags
"$stateUnwindMap$?raise@array_required_error@json@boost@@SAXXZ":
	.long	-1                      # ToState
	.long	"?dtor$4@?0??raise@array_required_error@json@boost@@SAXXZ@4HA"@IMGREL # Action
	.long	-1                      # ToState
	.long	"?dtor$3@?0??raise@array_required_error@json@boost@@SAXXZ@4HA"@IMGREL # Action
"$ip2state$?raise@array_required_error@json@boost@@SAXXZ":
	.long	.Lfunc_begin25@IMGREL   # IP
	.long	-1                      # ToState
	.long	.Ltmp80@IMGREL+1        # IP
	.long	0                       # ToState
	.long	.Ltmp82@IMGREL+1        # IP
	.long	1                       # ToState
	.long	.Ltmp83@IMGREL+1        # IP
	.long	-1                      # ToState
	.section	.text,"xr",one_only,"?raise@array_required_error@json@boost@@SAXXZ"
                                        # -- End function
	.def	 "??$throw_exception@Uarray_required_error@json@boost@@@boost@@YAXAEBUarray_required_error@json@0@AEBUsource_location@0@@Z";
	.scl	2;
	.type	32;
	.endef
	.section	.text,"xr",discard,"??$throw_exception@Uarray_required_error@json@boost@@@boost@@YAXAEBUarray_required_error@json@0@AEBUsource_location@0@@Z"
	.globl	"??$throw_exception@Uarray_required_error@json@boost@@@boost@@YAXAEBUarray_required_error@json@0@AEBUsource_location@0@@Z" # -- Begin function ??$throw_exception@Uarray_required_error@json@boost@@@boost@@YAXAEBUarray_required_error@json@0@AEBUsource_location@0@@Z
	.p2align	4, 0x90
"??$throw_exception@Uarray_required_error@json@boost@@@boost@@YAXAEBUarray_required_error@json@0@AEBUsource_location@0@@Z": # @"??$throw_exception@Uarray_required_error@json@boost@@@boost@@YAXAEBUarray_required_error@json@0@AEBUsource_location@0@@Z"
.seh_proc "??$throw_exception@Uarray_required_error@json@boost@@@boost@@YAXAEBUarray_required_error@json@0@AEBUsource_location@0@@Z"
# %bb.0:
	push	rsi
	.seh_pushreg rsi
	sub	rsp, 112
	.seh_stackalloc 112
	.seh_endprologue
	mov	r8, rdx
	mov	rdx, rcx
	lea	rsi, [rsp + 40]
	mov	rcx, rsi
	call	"??0?$wrapexcept@Uarray_required_error@json@boost@@@boost@@QEAA@AEBUarray_required_error@json@1@AEBUsource_location@1@@Z"
	lea	rdx, [rip + "_TI8?AU?$wrapexcept@Uarray_required_error@json@boost@@@boost@@"]
	mov	rcx, rsi
	call	_CxxThrowException
	int3
	.seh_handlerdata
	.section	.text,"xr",discard,"??$throw_exception@Uarray_required_error@json@boost@@@boost@@YAXAEBUarray_required_error@json@0@AEBUsource_location@0@@Z"
	.seh_endproc
                                        # -- End function
	.def	 "??0array_too_large@json@boost@@QEAA@XZ";
	.scl	2;
	.type	32;
	.endef
	.section	.text,"xr",one_only,"??0array_too_large@json@boost@@QEAA@XZ"
	.globl	"??0array_too_large@json@boost@@QEAA@XZ" # -- Begin function ??0array_too_large@json@boost@@QEAA@XZ
	.p2align	4, 0x90
"??0array_too_large@json@boost@@QEAA@XZ": # @"??0array_too_large@json@boost@@QEAA@XZ"
.Lfunc_begin26:
.seh_proc "??0array_too_large@json@boost@@QEAA@XZ"
	.seh_handler __CxxFrameHandler3, @unwind, @except
# %bb.0:
	push	rbp
	.seh_pushreg rbp
	push	rsi
	.seh_pushreg rsi
	sub	rsp, 56
	.seh_stackalloc 56
	lea	rbp, [rsp + 48]
	.seh_setframe rbp, 48
	.seh_endprologue
	mov	qword ptr [rbp], -2
	mov	rsi, rcx
	lea	rax, [rip + "??_7exception@std@@6B@"]
	mov	qword ptr [rcx], rax
	lea	rdx, [rcx + 8]
	xorps	xmm0, xmm0
	movups	xmmword ptr [rcx + 8], xmm0
	lea	rax, [rip + "??_C@_0BA@DIOCNIJA@array?5too?5large?$AA@"]
	mov	qword ptr [rbp - 16], rax
	mov	byte ptr [rbp - 8], 1
.Ltmp84:
	lea	rcx, [rbp - 16]
	call	__std_exception_copy
.Ltmp85:
# %bb.1:
	lea	rax, [rip + "??_7array_too_large@json@boost@@6B@"]
	mov	qword ptr [rsi], rax
	mov	rax, rsi
	add	rsp, 56
	pop	rsi
	pop	rbp
	ret
	.seh_handlerdata
	.long	("$cppxdata$??0array_too_large@json@boost@@QEAA@XZ")@IMGREL
	.section	.text,"xr",one_only,"??0array_too_large@json@boost@@QEAA@XZ"
	.seh_endproc
	.def	 "?dtor$2@?0???0array_too_large@json@boost@@QEAA@XZ@4HA";
	.scl	3;
	.type	32;
	.endef
	.p2align	4, 0x90
"?dtor$2@?0???0array_too_large@json@boost@@QEAA@XZ@4HA":
.seh_proc "?dtor$2@?0???0array_too_large@json@boost@@QEAA@XZ@4HA"
.LBB45_2:
	mov	qword ptr [rsp + 16], rdx
	push	rbp
	.seh_pushreg rbp
	push	rsi
	.seh_pushreg rsi
	sub	rsp, 40
	.seh_stackalloc 40
	lea	rbp, [rdx + 48]
	.seh_endprologue
	call	__std_terminate
	int3
.Lfunc_end26:
	.seh_handlerdata
	.section	.text,"xr",one_only,"??0array_too_large@json@boost@@QEAA@XZ"
	.seh_endproc
	.section	.xdata,"dr",associative,"??0array_too_large@json@boost@@QEAA@XZ"
	.p2align	2
"$cppxdata$??0array_too_large@json@boost@@QEAA@XZ":
	.long	429065506               # MagicNumber
	.long	1                       # MaxState
	.long	("$stateUnwindMap$??0array_too_large@json@boost@@QEAA@XZ")@IMGREL # UnwindMap
	.long	0                       # NumTryBlocks
	.long	0                       # TryBlockMap
	.long	3                       # IPMapEntries
	.long	("$ip2state$??0array_too_large@json@boost@@QEAA@XZ")@IMGREL # IPToStateXData
	.long	48                      # UnwindHelp
	.long	0                       # ESTypeList
	.long	1                       # EHFlags
"$stateUnwindMap$??0array_too_large@json@boost@@QEAA@XZ":
	.long	-1                      # ToState
	.long	"?dtor$2@?0???0array_too_large@json@boost@@QEAA@XZ@4HA"@IMGREL # Action
"$ip2state$??0array_too_large@json@boost@@QEAA@XZ":
	.long	.Lfunc_begin26@IMGREL   # IP
	.long	-1                      # ToState
	.long	.Ltmp84@IMGREL+1        # IP
	.long	0                       # ToState
	.long	.Ltmp85@IMGREL+1        # IP
	.long	-1                      # ToState
	.section	.text,"xr",one_only,"??0array_too_large@json@boost@@QEAA@XZ"
                                        # -- End function
	.def	 "??$throw_exception@Uarray_too_large@json@boost@@@boost@@YAXAEBUarray_too_large@json@0@AEBUsource_location@0@@Z";
	.scl	2;
	.type	32;
	.endef
	.section	.text,"xr",discard,"??$throw_exception@Uarray_too_large@json@boost@@@boost@@YAXAEBUarray_too_large@json@0@AEBUsource_location@0@@Z"
	.globl	"??$throw_exception@Uarray_too_large@json@boost@@@boost@@YAXAEBUarray_too_large@json@0@AEBUsource_location@0@@Z" # -- Begin function ??$throw_exception@Uarray_too_large@json@boost@@@boost@@YAXAEBUarray_too_large@json@0@AEBUsource_location@0@@Z
	.p2align	4, 0x90
"??$throw_exception@Uarray_too_large@json@boost@@@boost@@YAXAEBUarray_too_large@json@0@AEBUsource_location@0@@Z": # @"??$throw_exception@Uarray_too_large@json@boost@@@boost@@YAXAEBUarray_too_large@json@0@AEBUsource_location@0@@Z"
.seh_proc "??$throw_exception@Uarray_too_large@json@boost@@@boost@@YAXAEBUarray_too_large@json@0@AEBUsource_location@0@@Z"
# %bb.0:
	push	rsi
	.seh_pushreg rsi
	sub	rsp, 112
	.seh_stackalloc 112
	.seh_endprologue
	mov	r8, rdx
	mov	rdx, rcx
	lea	rsi, [rsp + 40]
	mov	rcx, rsi
	call	"??0?$wrapexcept@Uarray_too_large@json@boost@@@boost@@QEAA@AEBUarray_too_large@json@1@AEBUsource_location@1@@Z"
	lea	rdx, [rip + "_TI7?AU?$wrapexcept@Uarray_too_large@json@boost@@@boost@@"]
	mov	rcx, rsi
	call	_CxxThrowException
	int3
	.seh_handlerdata
	.section	.text,"xr",discard,"??$throw_exception@Uarray_too_large@json@boost@@@boost@@YAXAEBUarray_too_large@json@0@AEBUsource_location@0@@Z"
	.seh_endproc
                                        # -- End function
	.def	 "??0bool_required_error@json@boost@@QEAA@XZ";
	.scl	2;
	.type	32;
	.endef
	.section	.text,"xr",one_only,"??0bool_required_error@json@boost@@QEAA@XZ"
	.globl	"??0bool_required_error@json@boost@@QEAA@XZ" # -- Begin function ??0bool_required_error@json@boost@@QEAA@XZ
	.p2align	4, 0x90
"??0bool_required_error@json@boost@@QEAA@XZ": # @"??0bool_required_error@json@boost@@QEAA@XZ"
.Lfunc_begin27:
.seh_proc "??0bool_required_error@json@boost@@QEAA@XZ"
	.seh_handler __CxxFrameHandler3, @unwind, @except
# %bb.0:
	push	rbp
	.seh_pushreg rbp
	push	rsi
	.seh_pushreg rsi
	sub	rsp, 56
	.seh_stackalloc 56
	lea	rbp, [rsp + 48]
	.seh_setframe rbp, 48
	.seh_endprologue
	mov	qword ptr [rbp], -2
	mov	rsi, rcx
	lea	rax, [rip + "??_7exception@std@@6B@"]
	mov	qword ptr [rcx], rax
	lea	rdx, [rcx + 8]
	xorps	xmm0, xmm0
	movups	xmmword ptr [rcx + 8], xmm0
	lea	rax, [rip + "??_C@_0O@GIBGOOKD@bool?5required?$AA@"]
	mov	qword ptr [rbp - 16], rax
	mov	byte ptr [rbp - 8], 1
.Ltmp86:
	lea	rcx, [rbp - 16]
	call	__std_exception_copy
.Ltmp87:
# %bb.1:
	lea	rax, [rip + "??_7bool_required_error@json@boost@@6B@"]
	mov	qword ptr [rsi], rax
	mov	rax, rsi
	add	rsp, 56
	pop	rsi
	pop	rbp
	ret
	.seh_handlerdata
	.long	("$cppxdata$??0bool_required_error@json@boost@@QEAA@XZ")@IMGREL
	.section	.text,"xr",one_only,"??0bool_required_error@json@boost@@QEAA@XZ"
	.seh_endproc
	.def	 "?dtor$2@?0???0bool_required_error@json@boost@@QEAA@XZ@4HA";
	.scl	3;
	.type	32;
	.endef
	.p2align	4, 0x90
"?dtor$2@?0???0bool_required_error@json@boost@@QEAA@XZ@4HA":
.seh_proc "?dtor$2@?0???0bool_required_error@json@boost@@QEAA@XZ@4HA"
.LBB47_2:
	mov	qword ptr [rsp + 16], rdx
	push	rbp
	.seh_pushreg rbp
	push	rsi
	.seh_pushreg rsi
	sub	rsp, 40
	.seh_stackalloc 40
	lea	rbp, [rdx + 48]
	.seh_endprologue
	call	__std_terminate
	int3
.Lfunc_end27:
	.seh_handlerdata
	.section	.text,"xr",one_only,"??0bool_required_error@json@boost@@QEAA@XZ"
	.seh_endproc
	.section	.xdata,"dr",associative,"??0bool_required_error@json@boost@@QEAA@XZ"
	.p2align	2
"$cppxdata$??0bool_required_error@json@boost@@QEAA@XZ":
	.long	429065506               # MagicNumber
	.long	1                       # MaxState
	.long	("$stateUnwindMap$??0bool_required_error@json@boost@@QEAA@XZ")@IMGREL # UnwindMap
	.long	0                       # NumTryBlocks
	.long	0                       # TryBlockMap
	.long	3                       # IPMapEntries
	.long	("$ip2state$??0bool_required_error@json@boost@@QEAA@XZ")@IMGREL # IPToStateXData
	.long	48                      # UnwindHelp
	.long	0                       # ESTypeList
	.long	1                       # EHFlags
"$stateUnwindMap$??0bool_required_error@json@boost@@QEAA@XZ":
	.long	-1                      # ToState
	.long	"?dtor$2@?0???0bool_required_error@json@boost@@QEAA@XZ@4HA"@IMGREL # Action
"$ip2state$??0bool_required_error@json@boost@@QEAA@XZ":
	.long	.Lfunc_begin27@IMGREL   # IP
	.long	-1                      # ToState
	.long	.Ltmp86@IMGREL+1        # IP
	.long	0                       # ToState
	.long	.Ltmp87@IMGREL+1        # IP
	.long	-1                      # ToState
	.section	.text,"xr",one_only,"??0bool_required_error@json@boost@@QEAA@XZ"
                                        # -- End function
	.def	 "?raise@bool_required_error@json@boost@@SAXXZ";
	.scl	2;
	.type	32;
	.endef
	.section	.text,"xr",one_only,"?raise@bool_required_error@json@boost@@SAXXZ"
	.globl	"?raise@bool_required_error@json@boost@@SAXXZ" # -- Begin function ?raise@bool_required_error@json@boost@@SAXXZ
	.p2align	4, 0x90
"?raise@bool_required_error@json@boost@@SAXXZ": # @"?raise@bool_required_error@json@boost@@SAXXZ"
.Lfunc_begin28:
.seh_proc "?raise@bool_required_error@json@boost@@SAXXZ"
	.seh_handler __CxxFrameHandler3, @unwind, @except
# %bb.0:
	push	rbp
	.seh_pushreg rbp
	sub	rsp, 112
	.seh_stackalloc 112
	lea	rbp, [rsp + 112]
	.seh_setframe rbp, 112
	.seh_endprologue
	mov	qword ptr [rbp - 8], -2
	lea	rax, [rip + "??_C@_0CB@DLOHHGHO@?4?4?2?4?4?2boost?1json?1impl?1except?4ipp@"]
	mov	qword ptr [rbp - 72], rax
	lea	rax, [rip + "??_C@_0DG@DANAJAIK@static?5void?5boost?3?3json?3?3bool_re@"]
	mov	qword ptr [rbp - 64], rax
	mov	qword ptr [rbp - 56], 96
	lea	rax, [rip + "??_7exception@std@@6B@"]
	mov	qword ptr [rbp - 32], rax
	lea	rdx, [rbp - 24]
	xorps	xmm0, xmm0
	movups	xmmword ptr [rbp - 24], xmm0
	lea	rax, [rip + "??_C@_0O@GIBGOOKD@bool?5required?$AA@"]
	mov	qword ptr [rbp - 48], rax
	mov	byte ptr [rbp - 40], 1
.Ltmp88:
	lea	rcx, [rbp - 48]
	call	__std_exception_copy
.Ltmp89:
# %bb.1:
	lea	rax, [rip + "??_7bool_required_error@json@boost@@6B@"]
	mov	qword ptr [rbp - 32], rax
.Ltmp90:
	lea	rcx, [rbp - 32]
	lea	rdx, [rbp - 72]
	call	"??$throw_exception@Ubool_required_error@json@boost@@@boost@@YAXAEBUbool_required_error@json@0@AEBUsource_location@0@@Z"
	sub	rsp, 32
.Ltmp91:
# %bb.2:
	.seh_handlerdata
	.long	("$cppxdata$?raise@bool_required_error@json@boost@@SAXXZ")@IMGREL
	.section	.text,"xr",one_only,"?raise@bool_required_error@json@boost@@SAXXZ"
	.seh_endproc
	.def	 "?dtor$3@?0??raise@bool_required_error@json@boost@@SAXXZ@4HA";
	.scl	3;
	.type	32;
	.endef
	.p2align	4, 0x90
"?dtor$3@?0??raise@bool_required_error@json@boost@@SAXXZ@4HA":
.seh_proc "?dtor$3@?0??raise@bool_required_error@json@boost@@SAXXZ@4HA"
.LBB48_3:
	mov	qword ptr [rsp + 16], rdx
	push	rbp
	.seh_pushreg rbp
	sub	rsp, 32
	.seh_stackalloc 32
	lea	rbp, [rdx + 112]
	.seh_endprologue
	lea	rax, [rip + "??_7exception@std@@6B@"]
	mov	qword ptr [rbp - 32], rax
	lea	rcx, [rbp - 24]
	call	__std_exception_destroy
	nop
	add	rsp, 32
	pop	rbp
	ret                             # CLEANUPRET
	.seh_handlerdata
	.section	.text,"xr",one_only,"?raise@bool_required_error@json@boost@@SAXXZ"
	.seh_endproc
	.def	 "?dtor$4@?0??raise@bool_required_error@json@boost@@SAXXZ@4HA";
	.scl	3;
	.type	32;
	.endef
	.p2align	4, 0x90
"?dtor$4@?0??raise@bool_required_error@json@boost@@SAXXZ@4HA":
.seh_proc "?dtor$4@?0??raise@bool_required_error@json@boost@@SAXXZ@4HA"
.LBB48_4:
	mov	qword ptr [rsp + 16], rdx
	push	rbp
	.seh_pushreg rbp
	sub	rsp, 32
	.seh_stackalloc 32
	lea	rbp, [rdx + 112]
	.seh_endprologue
	call	__std_terminate
	int3
.Lfunc_end28:
	.seh_handlerdata
	.section	.text,"xr",one_only,"?raise@bool_required_error@json@boost@@SAXXZ"
	.seh_endproc
	.section	.xdata,"dr",associative,"?raise@bool_required_error@json@boost@@SAXXZ"
	.p2align	2
"$cppxdata$?raise@bool_required_error@json@boost@@SAXXZ":
	.long	429065506               # MagicNumber
	.long	2                       # MaxState
	.long	("$stateUnwindMap$?raise@bool_required_error@json@boost@@SAXXZ")@IMGREL # UnwindMap
	.long	0                       # NumTryBlocks
	.long	0                       # TryBlockMap
	.long	4                       # IPMapEntries
	.long	("$ip2state$?raise@bool_required_error@json@boost@@SAXXZ")@IMGREL # IPToStateXData
	.long	104                     # UnwindHelp
	.long	0                       # ESTypeList
	.long	1                       # EHFlags
"$stateUnwindMap$?raise@bool_required_error@json@boost@@SAXXZ":
	.long	-1                      # ToState
	.long	"?dtor$4@?0??raise@bool_required_error@json@boost@@SAXXZ@4HA"@IMGREL # Action
	.long	-1                      # ToState
	.long	"?dtor$3@?0??raise@bool_required_error@json@boost@@SAXXZ@4HA"@IMGREL # Action
"$ip2state$?raise@bool_required_error@json@boost@@SAXXZ":
	.long	.Lfunc_begin28@IMGREL   # IP
	.long	-1                      # ToState
	.long	.Ltmp88@IMGREL+1        # IP
	.long	0                       # ToState
	.long	.Ltmp90@IMGREL+1        # IP
	.long	1                       # ToState
	.long	.Ltmp91@IMGREL+1        # IP
	.long	-1                      # ToState
	.section	.text,"xr",one_only,"?raise@bool_required_error@json@boost@@SAXXZ"
                                        # -- End function
	.def	 "??$throw_exception@Ubool_required_error@json@boost@@@boost@@YAXAEBUbool_required_error@json@0@AEBUsource_location@0@@Z";
	.scl	2;
	.type	32;
	.endef
	.section	.text,"xr",discard,"??$throw_exception@Ubool_required_error@json@boost@@@boost@@YAXAEBUbool_required_error@json@0@AEBUsource_location@0@@Z"
	.globl	"??$throw_exception@Ubool_required_error@json@boost@@@boost@@YAXAEBUbool_required_error@json@0@AEBUsource_location@0@@Z" # -- Begin function ??$throw_exception@Ubool_required_error@json@boost@@@boost@@YAXAEBUbool_required_error@json@0@AEBUsource_location@0@@Z
	.p2align	4, 0x90
"??$throw_exception@Ubool_required_error@json@boost@@@boost@@YAXAEBUbool_required_error@json@0@AEBUsource_location@0@@Z": # @"??$throw_exception@Ubool_required_error@json@boost@@@boost@@YAXAEBUbool_required_error@json@0@AEBUsource_location@0@@Z"
.seh_proc "??$throw_exception@Ubool_required_error@json@boost@@@boost@@YAXAEBUbool_required_error@json@0@AEBUsource_location@0@@Z"
# %bb.0:
	push	rsi
	.seh_pushreg rsi
	sub	rsp, 112
	.seh_stackalloc 112
	.seh_endprologue
	mov	r8, rdx
	mov	rdx, rcx
	lea	rsi, [rsp + 40]
	mov	rcx, rsi
	call	"??0?$wrapexcept@Ubool_required_error@json@boost@@@boost@@QEAA@AEBUbool_required_error@json@1@AEBUsource_location@1@@Z"
	lea	rdx, [rip + "_TI8?AU?$wrapexcept@Ubool_required_error@json@boost@@@boost@@"]
	mov	rcx, rsi
	call	_CxxThrowException
	int3
	.seh_handlerdata
	.section	.text,"xr",discard,"??$throw_exception@Ubool_required_error@json@boost@@@boost@@YAXAEBUbool_required_error@json@0@AEBUsource_location@0@@Z"
	.seh_endproc
                                        # -- End function
	.def	 "??0char_pos_error@json@boost@@QEAA@XZ";
	.scl	2;
	.type	32;
	.endef
	.section	.text,"xr",one_only,"??0char_pos_error@json@boost@@QEAA@XZ"
	.globl	"??0char_pos_error@json@boost@@QEAA@XZ" # -- Begin function ??0char_pos_error@json@boost@@QEAA@XZ
	.p2align	4, 0x90
"??0char_pos_error@json@boost@@QEAA@XZ": # @"??0char_pos_error@json@boost@@QEAA@XZ"
.Lfunc_begin29:
.seh_proc "??0char_pos_error@json@boost@@QEAA@XZ"
	.seh_handler __CxxFrameHandler3, @unwind, @except
# %bb.0:
	push	rbp
	.seh_pushreg rbp
	push	rsi
	.seh_pushreg rsi
	sub	rsp, 56
	.seh_stackalloc 56
	lea	rbp, [rsp + 48]
	.seh_setframe rbp, 48
	.seh_endprologue
	mov	qword ptr [rbp], -2
	mov	rsi, rcx
	lea	rax, [rip + "??_7exception@std@@6B@"]
	mov	qword ptr [rcx], rax
	lea	rdx, [rcx + 8]
	xorps	xmm0, xmm0
	movups	xmmword ptr [rcx + 8], xmm0
	lea	rax, [rip + "??_C@_0BB@JCLBFINB@char?5index?5error?$AA@"]
	mov	qword ptr [rbp - 16], rax
	mov	byte ptr [rbp - 8], 1
.Ltmp92:
	lea	rcx, [rbp - 16]
	call	__std_exception_copy
.Ltmp93:
# %bb.1:
	lea	rax, [rip + "??_7char_pos_error@json@boost@@6B@"]
	mov	qword ptr [rsi], rax
	mov	rax, rsi
	add	rsp, 56
	pop	rsi
	pop	rbp
	ret
	.seh_handlerdata
	.long	("$cppxdata$??0char_pos_error@json@boost@@QEAA@XZ")@IMGREL
	.section	.text,"xr",one_only,"??0char_pos_error@json@boost@@QEAA@XZ"
	.seh_endproc
	.def	 "?dtor$2@?0???0char_pos_error@json@boost@@QEAA@XZ@4HA";
	.scl	3;
	.type	32;
	.endef
	.p2align	4, 0x90
"?dtor$2@?0???0char_pos_error@json@boost@@QEAA@XZ@4HA":
.seh_proc "?dtor$2@?0???0char_pos_error@json@boost@@QEAA@XZ@4HA"
.LBB50_2:
	mov	qword ptr [rsp + 16], rdx
	push	rbp
	.seh_pushreg rbp
	push	rsi
	.seh_pushreg rsi
	sub	rsp, 40
	.seh_stackalloc 40
	lea	rbp, [rdx + 48]
	.seh_endprologue
	call	__std_terminate
	int3
.Lfunc_end29:
	.seh_handlerdata
	.section	.text,"xr",one_only,"??0char_pos_error@json@boost@@QEAA@XZ"
	.seh_endproc
	.section	.xdata,"dr",associative,"??0char_pos_error@json@boost@@QEAA@XZ"
	.p2align	2
"$cppxdata$??0char_pos_error@json@boost@@QEAA@XZ":
	.long	429065506               # MagicNumber
	.long	1                       # MaxState
	.long	("$stateUnwindMap$??0char_pos_error@json@boost@@QEAA@XZ")@IMGREL # UnwindMap
	.long	0                       # NumTryBlocks
	.long	0                       # TryBlockMap
	.long	3                       # IPMapEntries
	.long	("$ip2state$??0char_pos_error@json@boost@@QEAA@XZ")@IMGREL # IPToStateXData
	.long	48                      # UnwindHelp
	.long	0                       # ESTypeList
	.long	1                       # EHFlags
"$stateUnwindMap$??0char_pos_error@json@boost@@QEAA@XZ":
	.long	-1                      # ToState
	.long	"?dtor$2@?0???0char_pos_error@json@boost@@QEAA@XZ@4HA"@IMGREL # Action
"$ip2state$??0char_pos_error@json@boost@@QEAA@XZ":
	.long	.Lfunc_begin29@IMGREL   # IP
	.long	-1                      # ToState
	.long	.Ltmp92@IMGREL+1        # IP
	.long	0                       # ToState
	.long	.Ltmp93@IMGREL+1        # IP
	.long	-1                      # ToState
	.section	.text,"xr",one_only,"??0char_pos_error@json@boost@@QEAA@XZ"
                                        # -- End function
	.def	 "?raise@char_pos_error@json@boost@@SAXXZ";
	.scl	2;
	.type	32;
	.endef
	.section	.text,"xr",one_only,"?raise@char_pos_error@json@boost@@SAXXZ"
	.globl	"?raise@char_pos_error@json@boost@@SAXXZ" # -- Begin function ?raise@char_pos_error@json@boost@@SAXXZ
	.p2align	4, 0x90
"?raise@char_pos_error@json@boost@@SAXXZ": # @"?raise@char_pos_error@json@boost@@SAXXZ"
.Lfunc_begin30:
.seh_proc "?raise@char_pos_error@json@boost@@SAXXZ"
	.seh_handler __CxxFrameHandler3, @unwind, @except
# %bb.0:
	push	rbp
	.seh_pushreg rbp
	sub	rsp, 112
	.seh_stackalloc 112
	lea	rbp, [rsp + 112]
	.seh_setframe rbp, 112
	.seh_endprologue
	mov	qword ptr [rbp - 8], -2
	lea	rax, [rip + "??_C@_0CB@DLOHHGHO@?4?4?2?4?4?2boost?1json?1impl?1except?4ipp@"]
	mov	qword ptr [rbp - 72], rax
	lea	rax, [rip + "??_C@_0DB@EMIPGMFH@static?5void?5boost?3?3json?3?3char_po@"]
	mov	qword ptr [rbp - 64], rax
	mov	qword ptr [rbp - 56], 113
	lea	rax, [rip + "??_7exception@std@@6B@"]
	mov	qword ptr [rbp - 32], rax
	lea	rdx, [rbp - 24]
	xorps	xmm0, xmm0
	movups	xmmword ptr [rbp - 24], xmm0
	lea	rax, [rip + "??_C@_0BB@JCLBFINB@char?5index?5error?$AA@"]
	mov	qword ptr [rbp - 48], rax
	mov	byte ptr [rbp - 40], 1
.Ltmp94:
	lea	rcx, [rbp - 48]
	call	__std_exception_copy
.Ltmp95:
# %bb.1:
	lea	rax, [rip + "??_7char_pos_error@json@boost@@6B@"]
	mov	qword ptr [rbp - 32], rax
.Ltmp96:
	lea	rcx, [rbp - 32]
	lea	rdx, [rbp - 72]
	call	"??$throw_exception@Uchar_pos_error@json@boost@@@boost@@YAXAEBUchar_pos_error@json@0@AEBUsource_location@0@@Z"
	sub	rsp, 32
.Ltmp97:
# %bb.2:
	.seh_handlerdata
	.long	("$cppxdata$?raise@char_pos_error@json@boost@@SAXXZ")@IMGREL
	.section	.text,"xr",one_only,"?raise@char_pos_error@json@boost@@SAXXZ"
	.seh_endproc
	.def	 "?dtor$3@?0??raise@char_pos_error@json@boost@@SAXXZ@4HA";
	.scl	3;
	.type	32;
	.endef
	.p2align	4, 0x90
"?dtor$3@?0??raise@char_pos_error@json@boost@@SAXXZ@4HA":
.seh_proc "?dtor$3@?0??raise@char_pos_error@json@boost@@SAXXZ@4HA"
.LBB51_3:
	mov	qword ptr [rsp + 16], rdx
	push	rbp
	.seh_pushreg rbp
	sub	rsp, 32
	.seh_stackalloc 32
	lea	rbp, [rdx + 112]
	.seh_endprologue
	lea	rax, [rip + "??_7exception@std@@6B@"]
	mov	qword ptr [rbp - 32], rax
	lea	rcx, [rbp - 24]
	call	__std_exception_destroy
	nop
	add	rsp, 32
	pop	rbp
	ret                             # CLEANUPRET
	.seh_handlerdata
	.section	.text,"xr",one_only,"?raise@char_pos_error@json@boost@@SAXXZ"
	.seh_endproc
	.def	 "?dtor$4@?0??raise@char_pos_error@json@boost@@SAXXZ@4HA";
	.scl	3;
	.type	32;
	.endef
	.p2align	4, 0x90
"?dtor$4@?0??raise@char_pos_error@json@boost@@SAXXZ@4HA":
.seh_proc "?dtor$4@?0??raise@char_pos_error@json@boost@@SAXXZ@4HA"
.LBB51_4:
	mov	qword ptr [rsp + 16], rdx
	push	rbp
	.seh_pushreg rbp
	sub	rsp, 32
	.seh_stackalloc 32
	lea	rbp, [rdx + 112]
	.seh_endprologue
	call	__std_terminate
	int3
.Lfunc_end30:
	.seh_handlerdata
	.section	.text,"xr",one_only,"?raise@char_pos_error@json@boost@@SAXXZ"
	.seh_endproc
	.section	.xdata,"dr",associative,"?raise@char_pos_error@json@boost@@SAXXZ"
	.p2align	2
"$cppxdata$?raise@char_pos_error@json@boost@@SAXXZ":
	.long	429065506               # MagicNumber
	.long	2                       # MaxState
	.long	("$stateUnwindMap$?raise@char_pos_error@json@boost@@SAXXZ")@IMGREL # UnwindMap
	.long	0                       # NumTryBlocks
	.long	0                       # TryBlockMap
	.long	4                       # IPMapEntries
	.long	("$ip2state$?raise@char_pos_error@json@boost@@SAXXZ")@IMGREL # IPToStateXData
	.long	104                     # UnwindHelp
	.long	0                       # ESTypeList
	.long	1                       # EHFlags
"$stateUnwindMap$?raise@char_pos_error@json@boost@@SAXXZ":
	.long	-1                      # ToState
	.long	"?dtor$4@?0??raise@char_pos_error@json@boost@@SAXXZ@4HA"@IMGREL # Action
	.long	-1                      # ToState
	.long	"?dtor$3@?0??raise@char_pos_error@json@boost@@SAXXZ@4HA"@IMGREL # Action
"$ip2state$?raise@char_pos_error@json@boost@@SAXXZ":
	.long	.Lfunc_begin30@IMGREL   # IP
	.long	-1                      # ToState
	.long	.Ltmp94@IMGREL+1        # IP
	.long	0                       # ToState
	.long	.Ltmp96@IMGREL+1        # IP
	.long	1                       # ToState
	.long	.Ltmp97@IMGREL+1        # IP
	.long	-1                      # ToState
	.section	.text,"xr",one_only,"?raise@char_pos_error@json@boost@@SAXXZ"
                                        # -- End function
	.def	 "??$throw_exception@Uchar_pos_error@json@boost@@@boost@@YAXAEBUchar_pos_error@json@0@AEBUsource_location@0@@Z";
	.scl	2;
	.type	32;
	.endef
	.section	.text,"xr",discard,"??$throw_exception@Uchar_pos_error@json@boost@@@boost@@YAXAEBUchar_pos_error@json@0@AEBUsource_location@0@@Z"
	.globl	"??$throw_exception@Uchar_pos_error@json@boost@@@boost@@YAXAEBUchar_pos_error@json@0@AEBUsource_location@0@@Z" # -- Begin function ??$throw_exception@Uchar_pos_error@json@boost@@@boost@@YAXAEBUchar_pos_error@json@0@AEBUsource_location@0@@Z
	.p2align	4, 0x90
"??$throw_exception@Uchar_pos_error@json@boost@@@boost@@YAXAEBUchar_pos_error@json@0@AEBUsource_location@0@@Z": # @"??$throw_exception@Uchar_pos_error@json@boost@@@boost@@YAXAEBUchar_pos_error@json@0@AEBUsource_location@0@@Z"
.seh_proc "??$throw_exception@Uchar_pos_error@json@boost@@@boost@@YAXAEBUchar_pos_error@json@0@AEBUsource_location@0@@Z"
# %bb.0:
	push	rsi
	.seh_pushreg rsi
	sub	rsp, 112
	.seh_stackalloc 112
	.seh_endprologue
	mov	r8, rdx
	mov	rdx, rcx
	lea	rsi, [rsp + 40]
	mov	rcx, rsi
	call	"??0?$wrapexcept@Uchar_pos_error@json@boost@@@boost@@QEAA@AEBUchar_pos_error@json@1@AEBUsource_location@1@@Z"
	lea	rdx, [rip + "_TI7?AU?$wrapexcept@Uchar_pos_error@json@boost@@@boost@@"]
	mov	rcx, rsi
	call	_CxxThrowException
	int3
	.seh_handlerdata
	.section	.text,"xr",discard,"??$throw_exception@Uchar_pos_error@json@boost@@@boost@@YAXAEBUchar_pos_error@json@0@AEBUsource_location@0@@Z"
	.seh_endproc
                                        # -- End function
	.def	 "??0double_required_error@json@boost@@QEAA@XZ";
	.scl	2;
	.type	32;
	.endef
	.section	.text,"xr",one_only,"??0double_required_error@json@boost@@QEAA@XZ"
	.globl	"??0double_required_error@json@boost@@QEAA@XZ" # -- Begin function ??0double_required_error@json@boost@@QEAA@XZ
	.p2align	4, 0x90
"??0double_required_error@json@boost@@QEAA@XZ": # @"??0double_required_error@json@boost@@QEAA@XZ"
.Lfunc_begin31:
.seh_proc "??0double_required_error@json@boost@@QEAA@XZ"
	.seh_handler __CxxFrameHandler3, @unwind, @except
# %bb.0:
	push	rbp
	.seh_pushreg rbp
	push	rsi
	.seh_pushreg rsi
	sub	rsp, 56
	.seh_stackalloc 56
	lea	rbp, [rsp + 48]
	.seh_setframe rbp, 48
	.seh_endprologue
	mov	qword ptr [rbp], -2
	mov	rsi, rcx
	lea	rax, [rip + "??_7exception@std@@6B@"]
	mov	qword ptr [rcx], rax
	lea	rdx, [rcx + 8]
	xorps	xmm0, xmm0
	movups	xmmword ptr [rcx + 8], xmm0
	lea	rax, [rip + "??_C@_0BA@OGFAIBOI@double?5required?$AA@"]
	mov	qword ptr [rbp - 16], rax
	mov	byte ptr [rbp - 8], 1
.Ltmp98:
	lea	rcx, [rbp - 16]
	call	__std_exception_copy
.Ltmp99:
# %bb.1:
	lea	rax, [rip + "??_7double_required_error@json@boost@@6B@"]
	mov	qword ptr [rsi], rax
	mov	rax, rsi
	add	rsp, 56
	pop	rsi
	pop	rbp
	ret
	.seh_handlerdata
	.long	("$cppxdata$??0double_required_error@json@boost@@QEAA@XZ")@IMGREL
	.section	.text,"xr",one_only,"??0double_required_error@json@boost@@QEAA@XZ"
	.seh_endproc
	.def	 "?dtor$2@?0???0double_required_error@json@boost@@QEAA@XZ@4HA";
	.scl	3;
	.type	32;
	.endef
	.p2align	4, 0x90
"?dtor$2@?0???0double_required_error@json@boost@@QEAA@XZ@4HA":
.seh_proc "?dtor$2@?0???0double_required_error@json@boost@@QEAA@XZ@4HA"
.LBB53_2:
	mov	qword ptr [rsp + 16], rdx
	push	rbp
	.seh_pushreg rbp
	push	rsi
	.seh_pushreg rsi
	sub	rsp, 40
	.seh_stackalloc 40
	lea	rbp, [rdx + 48]
	.seh_endprologue
	call	__std_terminate
	int3
.Lfunc_end31:
	.seh_handlerdata
	.section	.text,"xr",one_only,"??0double_required_error@json@boost@@QEAA@XZ"
	.seh_endproc
	.section	.xdata,"dr",associative,"??0double_required_error@json@boost@@QEAA@XZ"
	.p2align	2
"$cppxdata$??0double_required_error@json@boost@@QEAA@XZ":
	.long	429065506               # MagicNumber
	.long	1                       # MaxState
	.long	("$stateUnwindMap$??0double_required_error@json@boost@@QEAA@XZ")@IMGREL # UnwindMap
	.long	0                       # NumTryBlocks
	.long	0                       # TryBlockMap
	.long	3                       # IPMapEntries
	.long	("$ip2state$??0double_required_error@json@boost@@QEAA@XZ")@IMGREL # IPToStateXData
	.long	48                      # UnwindHelp
	.long	0                       # ESTypeList
	.long	1                       # EHFlags
"$stateUnwindMap$??0double_required_error@json@boost@@QEAA@XZ":
	.long	-1                      # ToState
	.long	"?dtor$2@?0???0double_required_error@json@boost@@QEAA@XZ@4HA"@IMGREL # Action
"$ip2state$??0double_required_error@json@boost@@QEAA@XZ":
	.long	.Lfunc_begin31@IMGREL   # IP
	.long	-1                      # ToState
	.long	.Ltmp98@IMGREL+1        # IP
	.long	0                       # ToState
	.long	.Ltmp99@IMGREL+1        # IP
	.long	-1                      # ToState
	.section	.text,"xr",one_only,"??0double_required_error@json@boost@@QEAA@XZ"
                                        # -- End function
	.def	 "?raise@double_required_error@json@boost@@SAXXZ";
	.scl	2;
	.type	32;
	.endef
	.section	.text,"xr",one_only,"?raise@double_required_error@json@boost@@SAXXZ"
	.globl	"?raise@double_required_error@json@boost@@SAXXZ" # -- Begin function ?raise@double_required_error@json@boost@@SAXXZ
	.p2align	4, 0x90
"?raise@double_required_error@json@boost@@SAXXZ": # @"?raise@double_required_error@json@boost@@SAXXZ"
.Lfunc_begin32:
.seh_proc "?raise@double_required_error@json@boost@@SAXXZ"
	.seh_handler __CxxFrameHandler3, @unwind, @except
# %bb.0:
	push	rbp
	.seh_pushreg rbp
	sub	rsp, 112
	.seh_stackalloc 112
	lea	rbp, [rsp + 112]
	.seh_setframe rbp, 112
	.seh_endprologue
	mov	qword ptr [rbp - 8], -2
	lea	rax, [rip + "??_C@_0CB@DLOHHGHO@?4?4?2?4?4?2boost?1json?1impl?1except?4ipp@"]
	mov	qword ptr [rbp - 72], rax
	lea	rax, [rip + "??_C@_0DI@PCIKOKKJ@static?5void?5boost?3?3json?3?3double_@"]
	mov	qword ptr [rbp - 64], rax
	mov	qword ptr [rbp - 56], 130
	lea	rax, [rip + "??_7exception@std@@6B@"]
	mov	qword ptr [rbp - 32], rax
	lea	rdx, [rbp - 24]
	xorps	xmm0, xmm0
	movups	xmmword ptr [rbp - 24], xmm0
	lea	rax, [rip + "??_C@_0BA@OGFAIBOI@double?5required?$AA@"]
	mov	qword ptr [rbp - 48], rax
	mov	byte ptr [rbp - 40], 1
.Ltmp100:
	lea	rcx, [rbp - 48]
	call	__std_exception_copy
.Ltmp101:
# %bb.1:
	lea	rax, [rip + "??_7double_required_error@json@boost@@6B@"]
	mov	qword ptr [rbp - 32], rax
.Ltmp102:
	lea	rcx, [rbp - 32]
	lea	rdx, [rbp - 72]
	call	"??$throw_exception@Udouble_required_error@json@boost@@@boost@@YAXAEBUdouble_required_error@json@0@AEBUsource_location@0@@Z"
	sub	rsp, 32
.Ltmp103:
# %bb.2:
	.seh_handlerdata
	.long	("$cppxdata$?raise@double_required_error@json@boost@@SAXXZ")@IMGREL
	.section	.text,"xr",one_only,"?raise@double_required_error@json@boost@@SAXXZ"
	.seh_endproc
	.def	 "?dtor$3@?0??raise@double_required_error@json@boost@@SAXXZ@4HA";
	.scl	3;
	.type	32;
	.endef
	.p2align	4, 0x90
"?dtor$3@?0??raise@double_required_error@json@boost@@SAXXZ@4HA":
.seh_proc "?dtor$3@?0??raise@double_required_error@json@boost@@SAXXZ@4HA"
.LBB54_3:
	mov	qword ptr [rsp + 16], rdx
	push	rbp
	.seh_pushreg rbp
	sub	rsp, 32
	.seh_stackalloc 32
	lea	rbp, [rdx + 112]
	.seh_endprologue
	lea	rax, [rip + "??_7exception@std@@6B@"]
	mov	qword ptr [rbp - 32], rax
	lea	rcx, [rbp - 24]
	call	__std_exception_destroy
	nop
	add	rsp, 32
	pop	rbp
	ret                             # CLEANUPRET
	.seh_handlerdata
	.section	.text,"xr",one_only,"?raise@double_required_error@json@boost@@SAXXZ"
	.seh_endproc
	.def	 "?dtor$4@?0??raise@double_required_error@json@boost@@SAXXZ@4HA";
	.scl	3;
	.type	32;
	.endef
	.p2align	4, 0x90
"?dtor$4@?0??raise@double_required_error@json@boost@@SAXXZ@4HA":
.seh_proc "?dtor$4@?0??raise@double_required_error@json@boost@@SAXXZ@4HA"
.LBB54_4:
	mov	qword ptr [rsp + 16], rdx
	push	rbp
	.seh_pushreg rbp
	sub	rsp, 32
	.seh_stackalloc 32
	lea	rbp, [rdx + 112]
	.seh_endprologue
	call	__std_terminate
	int3
.Lfunc_end32:
	.seh_handlerdata
	.section	.text,"xr",one_only,"?raise@double_required_error@json@boost@@SAXXZ"
	.seh_endproc
	.section	.xdata,"dr",associative,"?raise@double_required_error@json@boost@@SAXXZ"
	.p2align	2
"$cppxdata$?raise@double_required_error@json@boost@@SAXXZ":
	.long	429065506               # MagicNumber
	.long	2                       # MaxState
	.long	("$stateUnwindMap$?raise@double_required_error@json@boost@@SAXXZ")@IMGREL # UnwindMap
	.long	0                       # NumTryBlocks
	.long	0                       # TryBlockMap
	.long	4                       # IPMapEntries
	.long	("$ip2state$?raise@double_required_error@json@boost@@SAXXZ")@IMGREL # IPToStateXData
	.long	104                     # UnwindHelp
	.long	0                       # ESTypeList
	.long	1                       # EHFlags
"$stateUnwindMap$?raise@double_required_error@json@boost@@SAXXZ":
	.long	-1                      # ToState
	.long	"?dtor$4@?0??raise@double_required_error@json@boost@@SAXXZ@4HA"@IMGREL # Action
	.long	-1                      # ToState
	.long	"?dtor$3@?0??raise@double_required_error@json@boost@@SAXXZ@4HA"@IMGREL # Action
"$ip2state$?raise@double_required_error@json@boost@@SAXXZ":
	.long	.Lfunc_begin32@IMGREL   # IP
	.long	-1                      # ToState
	.long	.Ltmp100@IMGREL+1       # IP
	.long	0                       # ToState
	.long	.Ltmp102@IMGREL+1       # IP
	.long	1                       # ToState
	.long	.Ltmp103@IMGREL+1       # IP
	.long	-1                      # ToState
	.section	.text,"xr",one_only,"?raise@double_required_error@json@boost@@SAXXZ"
                                        # -- End function
	.def	 "??$throw_exception@Udouble_required_error@json@boost@@@boost@@YAXAEBUdouble_required_error@json@0@AEBUsource_location@0@@Z";
	.scl	2;
	.type	32;
	.endef
	.section	.text,"xr",discard,"??$throw_exception@Udouble_required_error@json@boost@@@boost@@YAXAEBUdouble_required_error@json@0@AEBUsource_location@0@@Z"
	.globl	"??$throw_exception@Udouble_required_error@json@boost@@@boost@@YAXAEBUdouble_required_error@json@0@AEBUsource_location@0@@Z" # -- Begin function ??$throw_exception@Udouble_required_error@json@boost@@@boost@@YAXAEBUdouble_required_error@json@0@AEBUsource_location@0@@Z
	.p2align	4, 0x90
"??$throw_exception@Udouble_required_error@json@boost@@@boost@@YAXAEBUdouble_required_error@json@0@AEBUsource_location@0@@Z": # @"??$throw_exception@Udouble_required_error@json@boost@@@boost@@YAXAEBUdouble_required_error@json@0@AEBUsource_location@0@@Z"
.seh_proc "??$throw_exception@Udouble_required_error@json@boost@@@boost@@YAXAEBUdouble_required_error@json@0@AEBUsource_location@0@@Z"
# %bb.0:
	push	rsi
	.seh_pushreg rsi
	sub	rsp, 112
	.seh_stackalloc 112
	.seh_endprologue
	mov	r8, rdx
	mov	rdx, rcx
	lea	rsi, [rsp + 40]
	mov	rcx, rsi
	call	"??0?$wrapexcept@Udouble_required_error@json@boost@@@boost@@QEAA@AEBUdouble_required_error@json@1@AEBUsource_location@1@@Z"
	lea	rdx, [rip + "_TI9?AU?$wrapexcept@Udouble_required_error@json@boost@@@boost@@"]
	mov	rcx, rsi
	call	_CxxThrowException
	int3
	.seh_handlerdata
	.section	.text,"xr",discard,"??$throw_exception@Udouble_required_error@json@boost@@@boost@@YAXAEBUdouble_required_error@json@0@AEBUsource_location@0@@Z"
	.seh_endproc
                                        # -- End function
	.def	 "??0int64_required_error@json@boost@@QEAA@XZ";
	.scl	2;
	.type	32;
	.endef
	.section	.text,"xr",one_only,"??0int64_required_error@json@boost@@QEAA@XZ"
	.globl	"??0int64_required_error@json@boost@@QEAA@XZ" # -- Begin function ??0int64_required_error@json@boost@@QEAA@XZ
	.p2align	4, 0x90
"??0int64_required_error@json@boost@@QEAA@XZ": # @"??0int64_required_error@json@boost@@QEAA@XZ"
.Lfunc_begin33:
.seh_proc "??0int64_required_error@json@boost@@QEAA@XZ"
	.seh_handler __CxxFrameHandler3, @unwind, @except
# %bb.0:
	push	rbp
	.seh_pushreg rbp
	push	rsi
	.seh_pushreg rsi
	sub	rsp, 56
	.seh_stackalloc 56
	lea	rbp, [rsp + 48]
	.seh_setframe rbp, 48
	.seh_endprologue
	mov	qword ptr [rbp], -2
	mov	rsi, rcx
	lea	rax, [rip + "??_7exception@std@@6B@"]
	mov	qword ptr [rcx], rax
	lea	rdx, [rcx + 8]
	xorps	xmm0, xmm0
	movups	xmmword ptr [rcx + 8], xmm0
	lea	rax, [rip + "??_C@_0P@EAKGBCKH@int64?5required?$AA@"]
	mov	qword ptr [rbp - 16], rax
	mov	byte ptr [rbp - 8], 1
.Ltmp104:
	lea	rcx, [rbp - 16]
	call	__std_exception_copy
.Ltmp105:
# %bb.1:
	lea	rax, [rip + "??_7int64_required_error@json@boost@@6B@"]
	mov	qword ptr [rsi], rax
	mov	rax, rsi
	add	rsp, 56
	pop	rsi
	pop	rbp
	ret
	.seh_handlerdata
	.long	("$cppxdata$??0int64_required_error@json@boost@@QEAA@XZ")@IMGREL
	.section	.text,"xr",one_only,"??0int64_required_error@json@boost@@QEAA@XZ"
	.seh_endproc
	.def	 "?dtor$2@?0???0int64_required_error@json@boost@@QEAA@XZ@4HA";
	.scl	3;
	.type	32;
	.endef
	.p2align	4, 0x90
"?dtor$2@?0???0int64_required_error@json@boost@@QEAA@XZ@4HA":
.seh_proc "?dtor$2@?0???0int64_required_error@json@boost@@QEAA@XZ@4HA"
.LBB56_2:
	mov	qword ptr [rsp + 16], rdx
	push	rbp
	.seh_pushreg rbp
	push	rsi
	.seh_pushreg rsi
	sub	rsp, 40
	.seh_stackalloc 40
	lea	rbp, [rdx + 48]
	.seh_endprologue
	call	__std_terminate
	int3
.Lfunc_end33:
	.seh_handlerdata
	.section	.text,"xr",one_only,"??0int64_required_error@json@boost@@QEAA@XZ"
	.seh_endproc
	.section	.xdata,"dr",associative,"??0int64_required_error@json@boost@@QEAA@XZ"
	.p2align	2
"$cppxdata$??0int64_required_error@json@boost@@QEAA@XZ":
	.long	429065506               # MagicNumber
	.long	1                       # MaxState
	.long	("$stateUnwindMap$??0int64_required_error@json@boost@@QEAA@XZ")@IMGREL # UnwindMap
	.long	0                       # NumTryBlocks
	.long	0                       # TryBlockMap
	.long	3                       # IPMapEntries
	.long	("$ip2state$??0int64_required_error@json@boost@@QEAA@XZ")@IMGREL # IPToStateXData
	.long	48                      # UnwindHelp
	.long	0                       # ESTypeList
	.long	1                       # EHFlags
"$stateUnwindMap$??0int64_required_error@json@boost@@QEAA@XZ":
	.long	-1                      # ToState
	.long	"?dtor$2@?0???0int64_required_error@json@boost@@QEAA@XZ@4HA"@IMGREL # Action
"$ip2state$??0int64_required_error@json@boost@@QEAA@XZ":
	.long	.Lfunc_begin33@IMGREL   # IP
	.long	-1                      # ToState
	.long	.Ltmp104@IMGREL+1       # IP
	.long	0                       # ToState
	.long	.Ltmp105@IMGREL+1       # IP
	.long	-1                      # ToState
	.section	.text,"xr",one_only,"??0int64_required_error@json@boost@@QEAA@XZ"
                                        # -- End function
	.def	 "?raise@int64_required_error@json@boost@@SAXXZ";
	.scl	2;
	.type	32;
	.endef
	.section	.text,"xr",one_only,"?raise@int64_required_error@json@boost@@SAXXZ"
	.globl	"?raise@int64_required_error@json@boost@@SAXXZ" # -- Begin function ?raise@int64_required_error@json@boost@@SAXXZ
	.p2align	4, 0x90
"?raise@int64_required_error@json@boost@@SAXXZ": # @"?raise@int64_required_error@json@boost@@SAXXZ"
.Lfunc_begin34:
.seh_proc "?raise@int64_required_error@json@boost@@SAXXZ"
	.seh_handler __CxxFrameHandler3, @unwind, @except
# %bb.0:
	push	rbp
	.seh_pushreg rbp
	sub	rsp, 112
	.seh_stackalloc 112
	lea	rbp, [rsp + 112]
	.seh_setframe rbp, 112
	.seh_endprologue
	mov	qword ptr [rbp - 8], -2
	lea	rax, [rip + "??_C@_0CB@DLOHHGHO@?4?4?2?4?4?2boost?1json?1impl?1except?4ipp@"]
	mov	qword ptr [rbp - 72], rax
	lea	rax, [rip + "??_C@_0DH@FOCEKOIN@static?5void?5boost?3?3json?3?3int64_r@"]
	mov	qword ptr [rbp - 64], rax
	mov	qword ptr [rbp - 56], 147
	lea	rax, [rip + "??_7exception@std@@6B@"]
	mov	qword ptr [rbp - 32], rax
	lea	rdx, [rbp - 24]
	xorps	xmm0, xmm0
	movups	xmmword ptr [rbp - 24], xmm0
	lea	rax, [rip + "??_C@_0P@EAKGBCKH@int64?5required?$AA@"]
	mov	qword ptr [rbp - 48], rax
	mov	byte ptr [rbp - 40], 1
.Ltmp106:
	lea	rcx, [rbp - 48]
	call	__std_exception_copy
.Ltmp107:
# %bb.1:
	lea	rax, [rip + "??_7int64_required_error@json@boost@@6B@"]
	mov	qword ptr [rbp - 32], rax
.Ltmp108:
	lea	rcx, [rbp - 32]
	lea	rdx, [rbp - 72]
	call	"??$throw_exception@Uint64_required_error@json@boost@@@boost@@YAXAEBUint64_required_error@json@0@AEBUsource_location@0@@Z"
	sub	rsp, 32
.Ltmp109:
# %bb.2:
	.seh_handlerdata
	.long	("$cppxdata$?raise@int64_required_error@json@boost@@SAXXZ")@IMGREL
	.section	.text,"xr",one_only,"?raise@int64_required_error@json@boost@@SAXXZ"
	.seh_endproc
	.def	 "?dtor$3@?0??raise@int64_required_error@json@boost@@SAXXZ@4HA";
	.scl	3;
	.type	32;
	.endef
	.p2align	4, 0x90
"?dtor$3@?0??raise@int64_required_error@json@boost@@SAXXZ@4HA":
.seh_proc "?dtor$3@?0??raise@int64_required_error@json@boost@@SAXXZ@4HA"
.LBB57_3:
	mov	qword ptr [rsp + 16], rdx
	push	rbp
	.seh_pushreg rbp
	sub	rsp, 32
	.seh_stackalloc 32
	lea	rbp, [rdx + 112]
	.seh_endprologue
	lea	rax, [rip + "??_7exception@std@@6B@"]
	mov	qword ptr [rbp - 32], rax
	lea	rcx, [rbp - 24]
	call	__std_exception_destroy
	nop
	add	rsp, 32
	pop	rbp
	ret                             # CLEANUPRET
	.seh_handlerdata
	.section	.text,"xr",one_only,"?raise@int64_required_error@json@boost@@SAXXZ"
	.seh_endproc
	.def	 "?dtor$4@?0??raise@int64_required_error@json@boost@@SAXXZ@4HA";
	.scl	3;
	.type	32;
	.endef
	.p2align	4, 0x90
"?dtor$4@?0??raise@int64_required_error@json@boost@@SAXXZ@4HA":
.seh_proc "?dtor$4@?0??raise@int64_required_error@json@boost@@SAXXZ@4HA"
.LBB57_4:
	mov	qword ptr [rsp + 16], rdx
	push	rbp
	.seh_pushreg rbp
	sub	rsp, 32
	.seh_stackalloc 32
	lea	rbp, [rdx + 112]
	.seh_endprologue
	call	__std_terminate
	int3
.Lfunc_end34:
	.seh_handlerdata
	.section	.text,"xr",one_only,"?raise@int64_required_error@json@boost@@SAXXZ"
	.seh_endproc
	.section	.xdata,"dr",associative,"?raise@int64_required_error@json@boost@@SAXXZ"
	.p2align	2
"$cppxdata$?raise@int64_required_error@json@boost@@SAXXZ":
	.long	429065506               # MagicNumber
	.long	2                       # MaxState
	.long	("$stateUnwindMap$?raise@int64_required_error@json@boost@@SAXXZ")@IMGREL # UnwindMap
	.long	0                       # NumTryBlocks
	.long	0                       # TryBlockMap
	.long	4                       # IPMapEntries
	.long	("$ip2state$?raise@int64_required_error@json@boost@@SAXXZ")@IMGREL # IPToStateXData
	.long	104                     # UnwindHelp
	.long	0                       # ESTypeList
	.long	1                       # EHFlags
"$stateUnwindMap$?raise@int64_required_error@json@boost@@SAXXZ":
	.long	-1                      # ToState
	.long	"?dtor$4@?0??raise@int64_required_error@json@boost@@SAXXZ@4HA"@IMGREL # Action
	.long	-1                      # ToState
	.long	"?dtor$3@?0??raise@int64_required_error@json@boost@@SAXXZ@4HA"@IMGREL # Action
"$ip2state$?raise@int64_required_error@json@boost@@SAXXZ":
	.long	.Lfunc_begin34@IMGREL   # IP
	.long	-1                      # ToState
	.long	.Ltmp106@IMGREL+1       # IP
	.long	0                       # ToState
	.long	.Ltmp108@IMGREL+1       # IP
	.long	1                       # ToState
	.long	.Ltmp109@IMGREL+1       # IP
	.long	-1                      # ToState
	.section	.text,"xr",one_only,"?raise@int64_required_error@json@boost@@SAXXZ"
                                        # -- End function
	.def	 "??$throw_exception@Uint64_required_error@json@boost@@@boost@@YAXAEBUint64_required_error@json@0@AEBUsource_location@0@@Z";
	.scl	2;
	.type	32;
	.endef
	.section	.text,"xr",discard,"??$throw_exception@Uint64_required_error@json@boost@@@boost@@YAXAEBUint64_required_error@json@0@AEBUsource_location@0@@Z"
	.globl	"??$throw_exception@Uint64_required_error@json@boost@@@boost@@YAXAEBUint64_required_error@json@0@AEBUsource_location@0@@Z" # -- Begin function ??$throw_exception@Uint64_required_error@json@boost@@@boost@@YAXAEBUint64_required_error@json@0@AEBUsource_location@0@@Z
	.p2align	4, 0x90
"??$throw_exception@Uint64_required_error@json@boost@@@boost@@YAXAEBUint64_required_error@json@0@AEBUsource_location@0@@Z": # @"??$throw_exception@Uint64_required_error@json@boost@@@boost@@YAXAEBUint64_required_error@json@0@AEBUsource_location@0@@Z"
.seh_proc "??$throw_exception@Uint64_required_error@json@boost@@@boost@@YAXAEBUint64_required_error@json@0@AEBUsource_location@0@@Z"
# %bb.0:
	push	rsi
	.seh_pushreg rsi
	sub	rsp, 112
	.seh_stackalloc 112
	.seh_endprologue
	mov	r8, rdx
	mov	rdx, rcx
	lea	rsi, [rsp + 40]
	mov	rcx, rsi
	call	"??0?$wrapexcept@Uint64_required_error@json@boost@@@boost@@QEAA@AEBUint64_required_error@json@1@AEBUsource_location@1@@Z"
	lea	rdx, [rip + "_TI9?AU?$wrapexcept@Uint64_required_error@json@boost@@@boost@@"]
	mov	rcx, rsi
	call	_CxxThrowException
	int3
	.seh_handlerdata
	.section	.text,"xr",discard,"??$throw_exception@Uint64_required_error@json@boost@@@boost@@YAXAEBUint64_required_error@json@0@AEBUsource_location@0@@Z"
	.seh_endproc
                                        # -- End function
	.def	 "??1exception@std@@UEAA@XZ";
	.scl	2;
	.type	32;
	.endef
	.section	.text,"xr",discard,"??1exception@std@@UEAA@XZ"
	.globl	"??1exception@std@@UEAA@XZ" # -- Begin function ??1exception@std@@UEAA@XZ
	.p2align	4, 0x90
"??1exception@std@@UEAA@XZ":            # @"??1exception@std@@UEAA@XZ"
.Lfunc_begin35:
.seh_proc "??1exception@std@@UEAA@XZ"
	.seh_handler __CxxFrameHandler3, @unwind, @except
# %bb.0:
	push	rbp
	.seh_pushreg rbp
	sub	rsp, 48
	.seh_stackalloc 48
	lea	rbp, [rsp + 48]
	.seh_setframe rbp, 48
	.seh_endprologue
	mov	qword ptr [rbp - 8], -2
	lea	rax, [rip + "??_7exception@std@@6B@"]
	mov	qword ptr [rcx], rax
	add	rcx, 8
.Ltmp110:
	call	__std_exception_destroy
.Ltmp111:
# %bb.1:
	nop
	add	rsp, 48
	pop	rbp
	ret
	.seh_handlerdata
	.long	("$cppxdata$??1exception@std@@UEAA@XZ")@IMGREL
	.section	.text,"xr",discard,"??1exception@std@@UEAA@XZ"
	.seh_endproc
	.def	 "?dtor$2@?0???1exception@std@@UEAA@XZ@4HA";
	.scl	3;
	.type	32;
	.endef
	.p2align	4, 0x90
"?dtor$2@?0???1exception@std@@UEAA@XZ@4HA":
.seh_proc "?dtor$2@?0???1exception@std@@UEAA@XZ@4HA"
.LBB59_2:
	mov	qword ptr [rsp + 16], rdx
	push	rbp
	.seh_pushreg rbp
	sub	rsp, 32
	.seh_stackalloc 32
	lea	rbp, [rdx + 48]
	.seh_endprologue
	call	__std_terminate
	int3
.Lfunc_end35:
	.seh_handlerdata
	.section	.text,"xr",discard,"??1exception@std@@UEAA@XZ"
	.seh_endproc
	.section	.xdata,"dr",associative,"??1exception@std@@UEAA@XZ"
	.p2align	2
"$cppxdata$??1exception@std@@UEAA@XZ":
	.long	429065506               # MagicNumber
	.long	1                       # MaxState
	.long	("$stateUnwindMap$??1exception@std@@UEAA@XZ")@IMGREL # UnwindMap
	.long	0                       # NumTryBlocks
	.long	0                       # TryBlockMap
	.long	3                       # IPMapEntries
	.long	("$ip2state$??1exception@std@@UEAA@XZ")@IMGREL # IPToStateXData
	.long	40                      # UnwindHelp
	.long	0                       # ESTypeList
	.long	1                       # EHFlags
"$stateUnwindMap$??1exception@std@@UEAA@XZ":
	.long	-1                      # ToState
	.long	"?dtor$2@?0???1exception@std@@UEAA@XZ@4HA"@IMGREL # Action
"$ip2state$??1exception@std@@UEAA@XZ":
	.long	.Lfunc_begin35@IMGREL   # IP
	.long	-1                      # ToState
	.long	.Ltmp110@IMGREL+1       # IP
	.long	0                       # ToState
	.long	.Ltmp111@IMGREL+1       # IP
	.long	-1                      # ToState
	.section	.text,"xr",discard,"??1exception@std@@UEAA@XZ"
                                        # -- End function
	.def	 "??0key_not_found@json@boost@@QEAA@XZ";
	.scl	2;
	.type	32;
	.endef
	.section	.text,"xr",one_only,"??0key_not_found@json@boost@@QEAA@XZ"
	.globl	"??0key_not_found@json@boost@@QEAA@XZ" # -- Begin function ??0key_not_found@json@boost@@QEAA@XZ
	.p2align	4, 0x90
"??0key_not_found@json@boost@@QEAA@XZ": # @"??0key_not_found@json@boost@@QEAA@XZ"
.Lfunc_begin36:
.seh_proc "??0key_not_found@json@boost@@QEAA@XZ"
	.seh_handler __CxxFrameHandler3, @unwind, @except
# %bb.0:
	push	rbp
	.seh_pushreg rbp
	push	rsi
	.seh_pushreg rsi
	sub	rsp, 56
	.seh_stackalloc 56
	lea	rbp, [rsp + 48]
	.seh_setframe rbp, 48
	.seh_endprologue
	mov	qword ptr [rbp], -2
	mov	rsi, rcx
	lea	rax, [rip + "??_7exception@std@@6B@"]
	mov	qword ptr [rcx], rax
	lea	rdx, [rcx + 8]
	xorps	xmm0, xmm0
	movups	xmmword ptr [rcx + 8], xmm0
	lea	rax, [rip + "??_C@_0O@LAKHKHLP@key?5not?5found?$AA@"]
	mov	qword ptr [rbp - 16], rax
	mov	byte ptr [rbp - 8], 1
.Ltmp112:
	lea	rcx, [rbp - 16]
	call	__std_exception_copy
.Ltmp113:
# %bb.1:
	lea	rax, [rip + "??_7key_not_found@json@boost@@6B@"]
	mov	qword ptr [rsi], rax
	mov	rax, rsi
	add	rsp, 56
	pop	rsi
	pop	rbp
	ret
	.seh_handlerdata
	.long	("$cppxdata$??0key_not_found@json@boost@@QEAA@XZ")@IMGREL
	.section	.text,"xr",one_only,"??0key_not_found@json@boost@@QEAA@XZ"
	.seh_endproc
	.def	 "?dtor$2@?0???0key_not_found@json@boost@@QEAA@XZ@4HA";
	.scl	3;
	.type	32;
	.endef
	.p2align	4, 0x90
"?dtor$2@?0???0key_not_found@json@boost@@QEAA@XZ@4HA":
.seh_proc "?dtor$2@?0???0key_not_found@json@boost@@QEAA@XZ@4HA"
.LBB60_2:
	mov	qword ptr [rsp + 16], rdx
	push	rbp
	.seh_pushreg rbp
	push	rsi
	.seh_pushreg rsi
	sub	rsp, 40
	.seh_stackalloc 40
	lea	rbp, [rdx + 48]
	.seh_endprologue
	call	__std_terminate
	int3
.Lfunc_end36:
	.seh_handlerdata
	.section	.text,"xr",one_only,"??0key_not_found@json@boost@@QEAA@XZ"
	.seh_endproc
	.section	.xdata,"dr",associative,"??0key_not_found@json@boost@@QEAA@XZ"
	.p2align	2
"$cppxdata$??0key_not_found@json@boost@@QEAA@XZ":
	.long	429065506               # MagicNumber
	.long	1                       # MaxState
	.long	("$stateUnwindMap$??0key_not_found@json@boost@@QEAA@XZ")@IMGREL # UnwindMap
	.long	0                       # NumTryBlocks
	.long	0                       # TryBlockMap
	.long	3                       # IPMapEntries
	.long	("$ip2state$??0key_not_found@json@boost@@QEAA@XZ")@IMGREL # IPToStateXData
	.long	48                      # UnwindHelp
	.long	0                       # ESTypeList
	.long	1                       # EHFlags
"$stateUnwindMap$??0key_not_found@json@boost@@QEAA@XZ":
	.long	-1                      # ToState
	.long	"?dtor$2@?0???0key_not_found@json@boost@@QEAA@XZ@4HA"@IMGREL # Action
"$ip2state$??0key_not_found@json@boost@@QEAA@XZ":
	.long	.Lfunc_begin36@IMGREL   # IP
	.long	-1                      # ToState
	.long	.Ltmp112@IMGREL+1       # IP
	.long	0                       # ToState
	.long	.Ltmp113@IMGREL+1       # IP
	.long	-1                      # ToState
	.section	.text,"xr",one_only,"??0key_not_found@json@boost@@QEAA@XZ"
                                        # -- End function
	.def	 "?raise@key_not_found@json@boost@@SAXXZ";
	.scl	2;
	.type	32;
	.endef
	.section	.text,"xr",one_only,"?raise@key_not_found@json@boost@@SAXXZ"
	.globl	"?raise@key_not_found@json@boost@@SAXXZ" # -- Begin function ?raise@key_not_found@json@boost@@SAXXZ
	.p2align	4, 0x90
"?raise@key_not_found@json@boost@@SAXXZ": # @"?raise@key_not_found@json@boost@@SAXXZ"
.Lfunc_begin37:
.seh_proc "?raise@key_not_found@json@boost@@SAXXZ"
	.seh_handler __CxxFrameHandler3, @unwind, @except
# %bb.0:
	push	rbp
	.seh_pushreg rbp
	sub	rsp, 112
	.seh_stackalloc 112
	lea	rbp, [rsp + 112]
	.seh_setframe rbp, 112
	.seh_endprologue
	mov	qword ptr [rbp - 8], -2
	lea	rax, [rip + "??_C@_0CB@DLOHHGHO@?4?4?2?4?4?2boost?1json?1impl?1except?4ipp@"]
	mov	qword ptr [rbp - 72], rax
	lea	rax, [rip + "??_C@_0DA@HAJBCBLH@static?5void?5boost?3?3json?3?3key_not@"]
	mov	qword ptr [rbp - 64], rax
	mov	qword ptr [rbp - 56], 164
	lea	rax, [rip + "??_7exception@std@@6B@"]
	mov	qword ptr [rbp - 32], rax
	lea	rdx, [rbp - 24]
	xorps	xmm0, xmm0
	movups	xmmword ptr [rbp - 24], xmm0
	lea	rax, [rip + "??_C@_0O@LAKHKHLP@key?5not?5found?$AA@"]
	mov	qword ptr [rbp - 48], rax
	mov	byte ptr [rbp - 40], 1
.Ltmp114:
	lea	rcx, [rbp - 48]
	call	__std_exception_copy
.Ltmp115:
# %bb.1:
	lea	rax, [rip + "??_7key_not_found@json@boost@@6B@"]
	mov	qword ptr [rbp - 32], rax
.Ltmp116:
	lea	rcx, [rbp - 32]
	lea	rdx, [rbp - 72]
	call	"??$throw_exception@Ukey_not_found@json@boost@@@boost@@YAXAEBUkey_not_found@json@0@AEBUsource_location@0@@Z"
	sub	rsp, 32
.Ltmp117:
# %bb.2:
	.seh_handlerdata
	.long	("$cppxdata$?raise@key_not_found@json@boost@@SAXXZ")@IMGREL
	.section	.text,"xr",one_only,"?raise@key_not_found@json@boost@@SAXXZ"
	.seh_endproc
	.def	 "?dtor$3@?0??raise@key_not_found@json@boost@@SAXXZ@4HA";
	.scl	3;
	.type	32;
	.endef
	.p2align	4, 0x90
"?dtor$3@?0??raise@key_not_found@json@boost@@SAXXZ@4HA":
.seh_proc "?dtor$3@?0??raise@key_not_found@json@boost@@SAXXZ@4HA"
.LBB61_3:
	mov	qword ptr [rsp + 16], rdx
	push	rbp
	.seh_pushreg rbp
	sub	rsp, 32
	.seh_stackalloc 32
	lea	rbp, [rdx + 112]
	.seh_endprologue
	lea	rax, [rip + "??_7exception@std@@6B@"]
	mov	qword ptr [rbp - 32], rax
	lea	rcx, [rbp - 24]
	call	__std_exception_destroy
	nop
	add	rsp, 32
	pop	rbp
	ret                             # CLEANUPRET
	.seh_handlerdata
	.section	.text,"xr",one_only,"?raise@key_not_found@json@boost@@SAXXZ"
	.seh_endproc
	.def	 "?dtor$4@?0??raise@key_not_found@json@boost@@SAXXZ@4HA";
	.scl	3;
	.type	32;
	.endef
	.p2align	4, 0x90
"?dtor$4@?0??raise@key_not_found@json@boost@@SAXXZ@4HA":
.seh_proc "?dtor$4@?0??raise@key_not_found@json@boost@@SAXXZ@4HA"
.LBB61_4:
	mov	qword ptr [rsp + 16], rdx
	push	rbp
	.seh_pushreg rbp
	sub	rsp, 32
	.seh_stackalloc 32
	lea	rbp, [rdx + 112]
	.seh_endprologue
	call	__std_terminate
	int3
.Lfunc_end37:
	.seh_handlerdata
	.section	.text,"xr",one_only,"?raise@key_not_found@json@boost@@SAXXZ"
	.seh_endproc
	.section	.xdata,"dr",associative,"?raise@key_not_found@json@boost@@SAXXZ"
	.p2align	2
"$cppxdata$?raise@key_not_found@json@boost@@SAXXZ":
	.long	429065506               # MagicNumber
	.long	2                       # MaxState
	.long	("$stateUnwindMap$?raise@key_not_found@json@boost@@SAXXZ")@IMGREL # UnwindMap
	.long	0                       # NumTryBlocks
	.long	0                       # TryBlockMap
	.long	4                       # IPMapEntries
	.long	("$ip2state$?raise@key_not_found@json@boost@@SAXXZ")@IMGREL # IPToStateXData
	.long	104                     # UnwindHelp
	.long	0                       # ESTypeList
	.long	1                       # EHFlags
"$stateUnwindMap$?raise@key_not_found@json@boost@@SAXXZ":
	.long	-1                      # ToState
	.long	"?dtor$4@?0??raise@key_not_found@json@boost@@SAXXZ@4HA"@IMGREL # Action
	.long	-1                      # ToState
	.long	"?dtor$3@?0??raise@key_not_found@json@boost@@SAXXZ@4HA"@IMGREL # Action
"$ip2state$?raise@key_not_found@json@boost@@SAXXZ":
	.long	.Lfunc_begin37@IMGREL   # IP
	.long	-1                      # ToState
	.long	.Ltmp114@IMGREL+1       # IP
	.long	0                       # ToState
	.long	.Ltmp116@IMGREL+1       # IP
	.long	1                       # ToState
	.long	.Ltmp117@IMGREL+1       # IP
	.long	-1                      # ToState
	.section	.text,"xr",one_only,"?raise@key_not_found@json@boost@@SAXXZ"
                                        # -- End function
	.def	 "??$throw_exception@Ukey_not_found@json@boost@@@boost@@YAXAEBUkey_not_found@json@0@AEBUsource_location@0@@Z";
	.scl	2;
	.type	32;
	.endef
	.section	.text,"xr",discard,"??$throw_exception@Ukey_not_found@json@boost@@@boost@@YAXAEBUkey_not_found@json@0@AEBUsource_location@0@@Z"
	.globl	"??$throw_exception@Ukey_not_found@json@boost@@@boost@@YAXAEBUkey_not_found@json@0@AEBUsource_location@0@@Z" # -- Begin function ??$throw_exception@Ukey_not_found@json@boost@@@boost@@YAXAEBUkey_not_found@json@0@AEBUsource_location@0@@Z
	.p2align	4, 0x90
"??$throw_exception@Ukey_not_found@json@boost@@@boost@@YAXAEBUkey_not_found@json@0@AEBUsource_location@0@@Z": # @"??$throw_exception@Ukey_not_found@json@boost@@@boost@@YAXAEBUkey_not_found@json@0@AEBUsource_location@0@@Z"
.seh_proc "??$throw_exception@Ukey_not_found@json@boost@@@boost@@YAXAEBUkey_not_found@json@0@AEBUsource_location@0@@Z"
# %bb.0:
	push	rsi
	.seh_pushreg rsi
	sub	rsp, 112
	.seh_stackalloc 112
	.seh_endprologue
	mov	r8, rdx
	mov	rdx, rcx
	lea	rsi, [rsp + 40]
	mov	rcx, rsi
	call	"??0?$wrapexcept@Ukey_not_found@json@boost@@@boost@@QEAA@AEBUkey_not_found@json@1@AEBUsource_location@1@@Z"
	lea	rdx, [rip + "_TI7?AU?$wrapexcept@Ukey_not_found@json@boost@@@boost@@"]
	mov	rcx, rsi
	call	_CxxThrowException
	int3
	.seh_handlerdata
	.section	.text,"xr",discard,"??$throw_exception@Ukey_not_found@json@boost@@@boost@@YAXAEBUkey_not_found@json@0@AEBUsource_location@0@@Z"
	.seh_endproc
                                        # -- End function
	.def	 "??0key_too_large@json@boost@@QEAA@XZ";
	.scl	2;
	.type	32;
	.endef
	.section	.text,"xr",one_only,"??0key_too_large@json@boost@@QEAA@XZ"
	.globl	"??0key_too_large@json@boost@@QEAA@XZ" # -- Begin function ??0key_too_large@json@boost@@QEAA@XZ
	.p2align	4, 0x90
"??0key_too_large@json@boost@@QEAA@XZ": # @"??0key_too_large@json@boost@@QEAA@XZ"
.Lfunc_begin38:
.seh_proc "??0key_too_large@json@boost@@QEAA@XZ"
	.seh_handler __CxxFrameHandler3, @unwind, @except
# %bb.0:
	push	rbp
	.seh_pushreg rbp
	push	rsi
	.seh_pushreg rsi
	sub	rsp, 56
	.seh_stackalloc 56
	lea	rbp, [rsp + 48]
	.seh_setframe rbp, 48
	.seh_endprologue
	mov	qword ptr [rbp], -2
	mov	rsi, rcx
